2000   fc          ???
2001   f0 0f       BEQ  15       2012
2003   3f          ???
2004   dc          ???
2005   70 0d       BVS  13       2014
2007   37          ???
2008   dc          ???
2009   70 0d       BVS  13       2018
200b   37          ???
200c   dc          ???
200d   70 0d       BVS  13       201c
200f   37          ???
2010   dc          ???
2011   70 0d       BVS  13       2020
2013   37          ???
2014   dc          ???
2015   70 0d       BVS  13       2024
2017   37          ???
2018   dc          ???
2019   70 0d       BVS  13       2028
201b   37          ???
201c   dc          ???
201d   73          ???
201e   cd 37 dc    CMP &dc37
2021   f3          ???
2022   cf          ???
2023   37          ???
2024   dc          ???
2025   ff          ???
2026   ff          ???
2027   37          ???
2028   dc          ???
2029   ff          ???
202a   ff          ???
202b   37          ???
202c   fc          ???
202d   7b          ???
202e   ed 3f f0    SBC &f03f
2031   7a          ???
2032   ad 0f f0    LDA &f00f
2035   7a          ???
2036   ad 0f c0    LDA &c00f
2039   7a          ???
203a   ad 03 c0    LDA &c003
203d   7a          ???
203e   ad 03 c0    LDA &c003
2041   7b          ???
2042   ed 03 00    SBC &0003
2045   7f          ???
2046   fd 00 c0    SBC &c000,X
2049   7b          ???
204a   ed 03 c0    SBC &c003
204d   7a          ???
204e   ad 03 c0    LDA &c003
2051   7a          ???
2052   ad 03 c0    LDA &c003
2055   7a          ???
2056   ad 03 c0    LDA &c003
2059   7a          ???
205a   ad 03 00    LDA &0003
205d   7b          ???
205e   ed 00 00    SBC &0000
2061   7c          ???
2062   3d 00 00    AND &0000,X
2065   7b          ???
2066   ed 00 c0    SBC &c000
2069   7a          ???
206a   ad 03 c0    LDA &c003
206d   7a          ???
206e   ad 03 c0    LDA &c003
2071   7a          ???
2072   ad 03 c0    LDA &c003
2075   7a          ???
2076   ad 03 00    LDA &0003
2079   7b          ???
207a   ed 00 00    SBC &0000
207d   7c          ???
207e   3d 00 00    AND &0000,X
2081   7b          ???
2082   ed 00 c0    SBC &c000
2085   7a          ???
2086   ad 03 c0    LDA &c003
2089   7a          ???
208a   ad 03 c0    LDA &c003
208d   7a          ???
208e   ad 03 c0    LDA &c003
2091   7a          ???
2092   ad 03 00    LDA &0003
2095   7b          ???
2096   ed 00 00    SBC &0000
2099   7c          ???
209a   3d 00 00    AND &0000,X
209d   7c          ???
209e   3d 00 00    AND &0000,X
20a1   f0 0f       BEQ  15       20b2
20a3   00          BRK   
20a4   00          BRK   
20a5   ff          ???
20a6   ff          ???
20a7   00          BRK   
20a8   c0 ff       CPY #&ff
20aa   ff          ???
20ab   03          ???
20ac   f0 ff       BEQ  -1       20ad
20ae   ff          ???
20af   0f          ???
20b0   f0 d5       BEQ -43       2087
20b2   57          ???
20b3   0f          ???
20b4   fc          ???
20b5   fd 77 3f    SBC &3f77,X
20b8   fc          ???
20b9   fd 77 3f    SBC &3f77,X
20bc   fc          ???
20bd   d5 77       CMP &77,X
20bf   3f          ???
20c0   ff          ???
20c1   df          ???
20c2   77          ???
20c3   ff          ???
20c4   ff          ???
20c5   df          ???
20c6   77          ???
20c7   ff          ???
20c8   ff          ???
20c9   d5 77       CMP &77,X
20cb   ff          ???
20cc   ff          ???
20cd   ff          ???
20ce   ff          ???
20cf   ff          ???
20d0   ff          ???
20d1   ff          ???
20d2   ff          ???
20d3   ff          ???
20d4   ff          ???
20d5   ff          ???
20d6   ff          ???
20d7   ff          ???
20d8   ff          ???
20d9   ff          ???
20da   ff          ???
20db   ff          ???
20dc   ff          ???
20dd   ff          ???
20de   ff          ???
20df   ff          ???
20e0   ec ff ff    CPX &ffff
20e3   3b          ???
20e4   ac ff ff    LDY &ffff
20e7   3a          ???
20e8   bc fe bf    LDY &bffe,X
20eb   3e b0 fa    ROL &fab0,X
20ee   af          ???
20ef   0e f0 ea    ASL &eaf0
20f2   ab          ???
20f3   0f          ???
20f4   c0 eb       CPY #&eb
20f6   eb          ???
20f7   03          ???
20f8   00          BRK   
20f9   ff          ???
20fa   ff          ???
20fb   00          BRK   
20fc   00          BRK   
20fd   f0 0f       BEQ  15       210e
20ff   00          BRK   
2100   ff          ???
2101   00          BRK   
2102   00          BRK   
2103   00          BRK   
2104   00          BRK   
2105   00          BRK   
2106   00          BRK   
2107   00          BRK   
2108   c0 c0       CPY #&c0
210a   c0 c0       CPY #&c0
210c   04          ???
210d   04          ???
210e   04          ???
210f   04          ???
2110   00          BRK   
2111   00          BRK   
2112   00          BRK   
2113   64          ???
2114   00          BRK   
2115   00          BRK   
2116   00          BRK   
2117   ff          ???
2118   00          BRK   
2119   00          BRK   
211a   00          BRK   
211b   00          BRK   
211c   00          BRK   
211d   00          BRK   
211e   00          BRK   
211f   00          BRK   
2120   00          BRK   
2121   00          BRK   
2122   00          BRK   
2123   05 00       ORA &00
2125   00          BRK   
2126   00          BRK   
2127   ff          ???
2128   00          BRK   
2129   00          BRK   
212a   00          BRK   
212b   00          BRK   
212c   00          BRK   
212d   00          BRK   
212e   00          BRK   
212f   00          BRK   
2130   00          BRK   
2131   00          BRK   
2132   00          BRK   
2133   64          ???
2134   00          BRK   
2135   00          BRK   
2136   00          BRK   
2137   00          BRK   
2138   ff          ???
2139   00          BRK   
213a   00          BRK   
213b   00          BRK   
213c   00          BRK   
213d   ef          ???
213e   00          BRK   
213f   0d 00 00    ORA &0000
2142   00          BRK   
2143   00          BRK   
2144   00          BRK   
2145   00          BRK   
2146   00          BRK   
2147   00          BRK   
2148   00          BRK   
2149   00          BRK   
214a   00          BRK   
214b   00          BRK   
214c   00          BRK   
214d   00          BRK   
214e   00          BRK   
214f   00          BRK   
2150   00          BRK   
2151   00          BRK   
2152   00          BRK   
2153   00          BRK   
2154   00          BRK   
2155   00          BRK   
2156   00          BRK   
2157   00          BRK   
2158   00          BRK   
2159   00          BRK   
215a   00          BRK   
215b   00          BRK   
215c   00          BRK   
215d   00          BRK   
215e   00          BRK   
215f   00          BRK   
2160   00          BRK   
2161   00          BRK   
2162   00          BRK   
2163   00          BRK   
2164   00          BRK   
2165   00          BRK   
2166   00          BRK   
2167   00          BRK   
2168   00          BRK   
2169   00          BRK   
216a   00          BRK   
216b   00          BRK   
216c   00          BRK   
216d   00          BRK   
216e   00          BRK   
216f   00          BRK   
2170   64          ???
2171   06 90       ASL &90
2173   64          ???
2174   06 90       ASL &90
2176   64          ???
2177   06 00       ASL &00
2179   00          BRK   
217a   00          BRK   
217b   00          BRK   
217c   00          BRK   
217d   00          BRK   
217e   00          BRK   
217f   90 a5       BCC -91       2126
2181   24 f0       BIT &f0
2183   08          PHP 
2184   a9 8b       LDA #&8b
2186   20 0c 17    JSR &170c
2189   d0 16       BNE  22       21a1
218b   60          RTS 
218c   a9 8a       LDA #&8a
218e   20 0c 17    JSR &170c
2191   f0 f8       BEQ  -8       218b
2193   a9 20       LDA #&20
2195   85 24       STA &24
2197   8d 95 10    STA &1095
219a   a2 86       LDX #&86
219c   8e 70 10    STX &1070
219f   d0 03       BNE   3       21a4
21a1   20 48 12    JSR &1248
21a4   4c 55 12    JMP &1255
21a7   85 31       STA &31
21a9   a5 50       LDA &50
21ab   c9 92       CMP #&92
21ad   90 05       BCC   5       21b4
21af   a5 31       LDA &31
21b1   4c 90 2e    JMP &2e90
21b4   a5 56       LDA &56
21b6   c9 c0       CMP #&c0
21b8   d0 f5       BNE -11       21af
21ba   a5 31       LDA &31
21bc   4c 00 11    JMP &1100
21bf   ea          NOP 
21c0   83          ???
21c1   0a          ASL A
21c2   01 01 0a    ORA X,&0a01
21c5   05 05       ORA &05
21c7   7e ff 00    ROR &00ff,X
21ca   f6 7e       INC &7e,X
21cc   78          SEI 
21cd   00          BRK   
21ce   00          BRK   
21cf   00          BRK   
21d0   80          ???
21d1   00          BRK   
21d2   ff          ???
21d3   00          BRK   
21d4   10 01       BPL   1       21d7
21d6   ff          ???
21d7   7e fe 00    ROR &00fe,X
21da   fd 7e 78    SBC &787e,X
21dd   00          BRK   
21de   00          BRK   
21df   00          BRK   
21e0   01 03 02    ORA X,&0203
21e3   fe 06 06    INC &0606,X
21e6   06 74       ASL &74
21e8   00          BRK   
21e9   00          BRK   
21ea   fb          ???
21eb   74          ???
21ec   00          BRK   
21ed   00          BRK   
21ee   00          BRK   
21ef   00          BRK   
21f0   01 00 01    ORA X,&0100
21f3   ff          ???
21f4   04          ???
21f5   04          ???
21f6   04          ???
21f7   7e ff ff    ROR &ffff,X
21fa   fe 7e 7d    INC &7d7e,X
21fd   00          BRK   
21fe   00          BRK   
21ff   00          BRK   
2200   28          PLP 
2201   3c          ???
2202   00          BRK   
2203   00          BRK   
2204   00          BRK   
2205   28          PLP 
2206   3c          ???
2207   00          BRK   
2208   3c          ???
2209   3c          ???
220a   14          ???
220b   00          BRK   
220c   00          BRK   
220d   3c          ???
220e   3c          ???
220f   14          ???
2210   3c          ???
2211   34          ???
2212   14          ???
2213   33          ???
2214   11 3c 34    ORA (&343c,Y)
2217   14          ???
2218   3c          ???
2219   30 36       BMI  54       2251
221b   33          ???
221c   33          ???
221d   3c          ???
221e   30 14       BMI  20       2234
2220   28          PLP 
2221   3c          ???
2222   22          ???
2223   33          ???
2224   36 28       ROL &28,X
2226   3c          ???
2227   00          BRK   
2228   00          BRK   
2229   00          BRK   
222a   22          ???
222b   39 36 00    AND &0036,Y
222e   00          BRK   
222f   00          BRK   
2230   00          BRK   
2231   00          BRK   
2232   00          BRK   
2233   33          ???
2234   11 00 00    ORA (&0000,Y)
2237   00          BRK   
2238   00          BRK   
2239   00          BRK   
223a   00          BRK   
223b   3c          ???
223c   14          ???
223d   00          BRK   
223e   00          BRK   
223f   00          BRK   
2240   00          BRK   
2241   00          BRK   
2242   28          PLP 
2243   3c          ???
2244   3c          ???
2245   00          BRK   
2246   00          BRK   
2247   00          BRK   
2248   00          BRK   
2249   00          BRK   
224a   28          PLP 
224b   3c          ???
224c   38          SEC 
224d   00          BRK   
224e   00          BRK   
224f   00          BRK   
2250   00          BRK   
2251   00          BRK   
2252   28          PLP 
2253   34          ???
2254   38          SEC 
2255   00          BRK   
2256   00          BRK   
2257   00          BRK   
2258   00          BRK   
2259   00          BRK   
225a   00          BRK   
225b   3c          ???
225c   14          ???
225d   00          BRK   
225e   00          BRK   
225f   00          BRK   
2260   00          BRK   
2261   0f          ???
2262   0f          ???
2263   0f          ???
2264   0f          ???
2265   0f          ???
2266   0f          ???
2267   05 0a       ORA &0a
2269   0f          ???
226a   03          ???
226b   03          ???
226c   03          ???
226d   03          ???
226e   03          ???
226f   0b          ???
2270   0a          ASL A
2271   0f          ???
2272   07          ???
2273   03          ???
2274   03          ???
2275   03          ???
2276   03          ???
2277   05 0f       ORA &0f
2279   0f          ???
227a   07          ???
227b   03          ???
227c   03          ???
227d   03          ???
227e   03          ???
227f   05 0f       ORA &0f
2281   0f          ???
2282   0f          ???
2283   03          ???
2284   03          ???
2285   03          ???
2286   0b          ???
2287   00          BRK   
2288   0f          ???
2289   0f          ???
228a   07          ???
228b   0f          ???
228c   0f          ???
228d   0f          ???
228e   0f          ???
228f   00          BRK   
2290   0a          ASL A
2291   0f          ???
2292   0b          ???
2293   0f          ???
2294   0f          ???
2295   0f          ???
2296   05 00       ORA &00
2298   00          BRK   
2299   07          ???
229a   0f          ???
229b   0f          ???
229c   0f          ???
229d   05 00       ORA &00
229f   00          BRK   
22a0   00          BRK   
22a1   0f          ???
22a2   0f          ???
22a3   0f          ???
22a4   0f          ???
22a5   00          BRK   
22a6   00          BRK   
22a7   00          BRK   
22a8   00          BRK   
22a9   00          BRK   
22aa   00          BRK   
22ab   00          BRK   
22ac   00          BRK   
22ad   00          BRK   
22ae   00          BRK   
22af   00          BRK   
22b0   00          BRK   
22b1   00          BRK   
22b2   00          BRK   
22b3   00          BRK   
22b4   00          BRK   
22b5   00          BRK   
22b6   00          BRK   
22b7   00          BRK   
22b8   00          BRK   
22b9   00          BRK   
22ba   00          BRK   
22bb   00          BRK   
22bc   00          BRK   
22bd   00          BRK   
22be   00          BRK   
22bf   00          BRK   
22c0   00          BRK   
22c1   00          BRK   
22c2   00          BRK   
22c3   00          BRK   
22c4   00          BRK   
22c5   00          BRK   
22c6   00          BRK   
22c7   00          BRK   
22c8   00          BRK   
22c9   28          PLP 
22ca   3c          ???
22cb   3c          ???
22cc   3c          ???
22cd   3c          ???
22ce   00          BRK   
22cf   00          BRK   
22d0   00          BRK   
22d1   34          ???
22d2   30 30       BMI  48       2304
22d4   30 30       BMI  48       2306
22d6   14          ???
22d7   00          BRK   
22d8   28          PLP 
22d9   30 1a       BMI  26       22f5
22db   0f          ???
22dc   0f          ???
22dd   30 38       BMI  56       2317
22df   00          BRK   
22e0   34          ???
22e1   30 30       BMI  48       2313
22e3   0f          ???
22e4   25 30       AND &30
22e6   30 14       BMI  20       22fc
22e8   3c          ???
22e9   30 30       BMI  48       231b
22eb   1a          ???
22ec   30 30       BMI  48       231e
22ee   38          SEC 
22ef   14          ???
22f0   28          PLP 
22f1   30 30       BMI  48       2323
22f3   1a          ???
22f4   30 30       BMI  48       2326
22f6   38          SEC 
22f7   00          BRK   
22f8   3c          ???
22f9   1a          ???
22fa   0f          ???
22fb   25 0f       AND &0f
22fd   0f          ???
22fe   38          SEC 
22ff   14          ???
2300   34          ???
2301   1a          ???
2302   0f          ???
2303   30 1a       BMI  26       231f
2305   0f          ???
2306   30 14       BMI  20       231c
2308   28          PLP 
2309   30 25       BMI  37       2330
230b   30 30       BMI  48       233d
230d   25 38       AND &38
230f   00          BRK   
2310   00          BRK   
2311   34          ???
2312   30 30       BMI  48       2344
2314   30 30       BMI  48       2346
2316   14          ???
2317   00          BRK   
2318   00          BRK   
2319   28          PLP 
231a   3c          ???
231b   3c          ???
231c   3c          ???
231d   3c          ???
231e   00          BRK   
231f   00          BRK   
2320   00          BRK   
2321   08          PHP 
2322   0c          ???
2323   0c          ???
2324   0c          ???
2325   0c          ???
2326   04          ???
2327   00          BRK   
2328   00          BRK   
2329   0c          ???
232a   0c          ???
232b   0c          ???
232c   0c          ???
232d   0c          ???
232e   0c          ???
232f   00          BRK   
2330   08          PHP 
2331   0c          ???
2332   0c          ???
2333   0c          ???
2334   0c          ???
2335   0c          ???
2336   0c          ???
2337   04          ???
2338   0c          ???
2339   0c          ???
233a   0c          ???
233b   0c          ???
233c   0c          ???
233d   0c          ???
233e   0c          ???
233f   0c          ???
2340   0c          ???
2341   0c          ???
2342   0c          ???
2343   0c          ???
2344   0c          ???
2345   0c          ???
2346   3c          ???
2347   0c          ???
2348   0c          ???
2349   0c          ???
234a   0c          ???
234b   0c          ???
234c   0c          ???
234d   2c 3c 0c    BIT &0c3c
2350   0c          ???
2351   0c          ???
2352   0c          ???
2353   0c          ???
2354   0c          ???
2355   3c          ???
2356   3c          ???
2357   0c          ???
2358   08          PHP 
2359   0c          ???
235a   0c          ???
235b   2c 3c 3c    BIT &3c3c
235e   0c          ???
235f   04          ???
2360   00          BRK   
2361   0c          ???
2362   0c          ???
2363   3c          ???
2364   3c          ???
2365   1c          ???
2366   0c          ???
2367   00          BRK   
2368   00          BRK   
2369   00          BRK   
236a   0c          ???
236b   0c          ???
236c   0c          ???
236d   0c          ???
236e   00          BRK   
236f   00          BRK   
2370   00          BRK   
2371   00          BRK   
2372   00          BRK   
2373   00          BRK   
2374   00          BRK   
2375   00          BRK   
2376   00          BRK   
2377   00          BRK   
2378   00          BRK   
2379   00          BRK   
237a   00          BRK   
237b   00          BRK   
237c   00          BRK   
237d   00          BRK   
237e   00          BRK   
237f   00          BRK   
2380   00          BRK   
2381   00          BRK   
2382   00          BRK   
2383   2a          ROL A
2384   15 00       ORA &00,X
2386   00          BRK   
2387   00          BRK   
2388   00          BRK   
2389   00          BRK   
238a   00          BRK   
238b   3f          ???
238c   3f          ???
238d   00          BRK   
238e   00          BRK   
238f   00          BRK   
2390   00          BRK   
2391   00          BRK   
2392   2a          ROL A
2393   3f          ???
2394   3f          ???
2395   15 00       ORA &00,X
2397   00          BRK   
2398   00          BRK   
2399   00          BRK   
239a   3f          ???
239b   3f          ???
239c   3f          ???
239d   3f          ???
239e   00          BRK   
239f   00          BRK   
23a0   00          BRK   
23a1   2a          ROL A
23a2   3f          ???
23a3   3f          ???
23a4   3f          ???
23a5   3f          ???
23a6   15 00       ORA &00,X
23a8   00          BRK   
23a9   3f          ???
23aa   3d 31 0d    AND &0d31,X
23ad   2b          ???
23ae   3f          ???
23af   00          BRK   
23b0   2a          ROL A
23b1   1f          ???
23b2   3d 31 0d    AND &0d31,X
23b5   2b          ???
23b6   2f          ???
23b7   15 2a       ORA &2a,X
23b9   2c 3b 3f    BIT &3f3b
23bc   3f          ???
23bd   37          ???
23be   1c          ???
23bf   15 00       ORA &00,X
23c1   17          ???
23c2   3f          ???
23c3   3f          ???
23c4   3f          ???
23c5   3f          ???
23c6   2b          ???
23c7   00          BRK   
23c8   00          BRK   
23c9   2a          ROL A
23ca   3f          ???
23cb   3f          ???
23cc   3f          ???
23cd   3f          ???
23ce   15 00       ORA &00,X
23d0   00          BRK   
23d1   00          BRK   
23d2   3f          ???
23d3   3f          ???
23d4   3f          ???
23d5   3f          ???
23d6   00          BRK   
23d7   00          BRK   
23d8   00          BRK   
23d9   00          BRK   
23da   00          BRK   
23db   3f          ???
23dc   3f          ???
23dd   00          BRK   
23de   00          BRK   
23df   00          BRK   
23e0   00          BRK   
23e1   ff          ???
23e2   ff          ???
23e3   00          BRK   
23e4   ff          ???
23e5   ff          ???
23e6   00          BRK   
23e7   ff          ???
23e8   00          BRK   
23e9   00          BRK   
23ea   00          BRK   
23eb   ff          ???
23ec   ff          ???
23ed   00          BRK   
23ee   00          BRK   
23ef   ff          ???
23f0   00          BRK   
23f1   ff          ???
23f2   ff          ???
23f3   00          BRK   
23f4   ff          ???
23f5   00          BRK   
23f6   ff          ???
23f7   00          BRK   
23f8   00          BRK   
23f9   ff          ???
23fa   00          BRK   
23fb   00          BRK   
23fc   00          BRK   
23fd   00          BRK   
23fe   00          BRK   
23ff   ff          ???
2400   10 10       BPL  16       2412
2402   10 10       BPL  16       2414
2404   10 10       BPL  16       2416
2406   10 10       BPL  16       2418
2408   10 10       BPL  16       241a
240a   10 10       BPL  16       241c
240c   10 10       BPL  16       241e
240e   10 10       BPL  16       2420
2410   48          PHA 
2411   a8          TAY 
2412   a2 d1       LDX #&d1
2414   48          PHA 
2415   68          PLA 
2416   48          PHA 
2417   68          PLA 
2418   ca          DEX 
2419   d0 f9       BNE  -7       2414
241b   88          DEY 
241c   d0 f4       BNE -12       2412
241e   68          PLA 
241f   60          RTS 
2420   00          BRK   
2421   40          RTI 
2422   11 41 80    ORA (&8041,Y)
2425   c0 91       CPY #&91
2427   c1 22 62    CMP X,&6222
242a   33          ???
242b   63          ???
242c   82          ???
242d   c2          ???
242e   93          ???
242f   c3          ???
2430   00          BRK   
2431   15 40       ORA &40,X
2433   05 3a       ORA &3a
2435   3f          ???
2436   6a          ROR A
2437   2f          ???
2438   80          ???
2439   95 c0       STA &c0,X
243b   85 0a       STA &0a
243d   1f          ???
243e   4a          LSR A
243f   0f          ???
2440   00          BRK   
2441   44          ???
2442   05 41       ORA &41
2444   88          DEY 
2445   cc 8d c9    CPY &c98d
2448   0a          ASL A
2449   4e 0f 4b    LSR &4b0f
244c   82          ???
244d   c6 87       DEC &87
244f   c3          ???
2450   00          BRK   
2451   11 41 45    ORA (&4541,Y)
2454   22          ???
2455   33          ???
2456   63          ???
2457   67          ???
2458   82          ???
2459   93          ???
245a   c3          ???
245b   c7          ???
245c   8a          TXA 
245d   9b          ???
245e   cb          ???
245f   cf          ???
2460   00          BRK   
2461   04          ???
2462   41 15 08    EOR X,&0815
2465   0c          ???
2466   49 1d       EOR #&1d
2468   82          ???
2469   86 c3       STX &c3
246b   97          ???
246c   2a          ROL A
246d   2e 6b 3f    ROL &3f6b
2470   00          BRK   
2471   15 45       ORA &45,X
2473   41 2a 3f    EOR X,&3f2a
2476   6f          ???
2477   6b          ???
2478   8a          TXA 
2479   9f          ???
247a   cf          ???
247b   cb          ???
247c   82          ???
247d   97          ???
247e   c7          ???
247f   c3          ???
2480   00          BRK   
2481   22          ???
2482   11 00 00    ORA (&0000,Y)
2485   22          ???
2486   11 00 03    ORA (&0300,Y)
2489   03          ???
248a   03          ???
248b   03          ???
248c   03          ???
248d   03          ???
248e   03          ???
248f   03          ???
2490   03          ???
2491   03          ???
2492   03          ???
2493   03          ???
2494   03          ???
2495   03          ???
2496   03          ???
2497   03          ???
2498   23          ???
2499   13          ???
249a   3c          ???
249b   16 0c       ASL &0c,X
249d   06 03       ASL &03
249f   07          ???
24a0   03          ???
24a1   13          ???
24a2   03          ???
24a3   16 06       ASL &06,X
24a5   06 03       ASL &03
24a7   07          ???
24a8   03          ???
24a9   13          ???
24aa   29 16       AND &16
24ac   06 06       ASL &06
24ae   0f          ???
24af   07          ???
24b0   03          ???
24b1   13          ???
24b2   03          ???
24b3   16 06       ASL &06,X
24b5   06 03       ASL &03
24b7   07          ???
24b8   03          ???
24b9   13          ???
24ba   3c          ???
24bb   16 06       ASL &06,X
24bd   06 0f       ASL &0f
24bf   07          ???
24c0   03          ???
24c1   03          ???
24c2   03          ???
24c3   03          ???
24c4   03          ???
24c5   03          ???
24c6   03          ???
24c7   03          ???
24c8   03          ???
24c9   03          ???
24ca   03          ???
24cb   03          ???
24cc   03          ???
24cd   03          ???
24ce   03          ???
24cf   03          ???
24d0   00          BRK   
24d1   00          BRK   
24d2   11 00 00    ORA (&0000,Y)
24d5   22          ???
24d6   00          BRK   
24d7   00          BRK   
24d8   00          BRK   
24d9   00          BRK   
24da   00          BRK   
24db   00          BRK   
24dc   00          BRK   
24dd   00          BRK   
24de   00          BRK   
24df   00          BRK   
24e0   00          BRK   
24e1   11 10 14    ORA (&1410,Y)
24e4   22          ???
24e5   33          ???
24e6   32          ???
24e7   36 20       ROL &20,X
24e9   31 30 34    AND (&3430,Y)
24ec   28          PLP 
24ed   39 38 3c    AND &3c38,Y
24f0   00          BRK   
24f1   01 10 15    ORA X,&1510
24f4   02          ???
24f5   03          ???
24f6   12          ???
24f7   17          ???
24f8   10 11       BPL  17       250b
24fa   20 25 2a    JSR &2a25
24fd   2b          ???
24fe   3a          ???
24ff   3f          ???
2500   00          BRK   
2501   00          BRK   
2502   00          BRK   
2503   00          BRK   
2504   00          BRK   
2505   00          BRK   
2506   00          BRK   
2507   00          BRK   
2508   00          BRK   
2509   00          BRK   
250a   0f          ???
250b   0f          ???
250c   00          BRK   
250d   00          BRK   
250e   00          BRK   
250f   00          BRK   
2510   00          BRK   
2511   00          BRK   
2512   08          PHP 
2513   0c          ???
2514   00          BRK   
2515   00          BRK   
2516   00          BRK   
2517   00          BRK   
2518   00          BRK   
2519   00          BRK   
251a   08          PHP 
251b   04          ???
251c   00          BRK   
251d   00          BRK   
251e   00          BRK   
251f   00          BRK   
2520   00          BRK   
2521   00          BRK   
2522   0c          ???
2523   04          ???
2524   00          BRK   
2525   00          BRK   
2526   00          BRK   
2527   00          BRK   
2528   00          BRK   
2529   08          PHP 
252a   0c          ???
252b   00          BRK   
252c   22          ???
252d   33          ???
252e   33          ???
252f   00          BRK   
2530   00          BRK   
2531   00          BRK   
2532   0c          ???
2533   04          ???
2534   22          ???
2535   22          ???
2536   22          ???
2537   00          BRK   
2538   00          BRK   
2539   00          BRK   
253a   08          PHP 
253b   0c          ???
253c   04          ???
253d   11 11 00    ORA (&0011,Y)
2540   00          BRK   
2541   00          BRK   
2542   00          BRK   
2543   00          BRK   
2544   00          BRK   
2545   02          ???
2546   00          BRK   
2547   00          BRK   
2548   00          BRK   
2549   00          BRK   
254a   0f          ???
254b   0f          ???
254c   00          BRK   
254d   0b          ???
254e   01 00 00    ORA X,&0000
2551   00          BRK   
2552   08          PHP 
2553   0c          ???
2554   02          ???
2555   0b          ???
2556   03          ???
2557   00          BRK   
2558   00          BRK   
2559   00          BRK   
255a   08          PHP 
255b   04          ???
255c   02          ???
255d   2f          ???
255e   07          ???
255f   00          BRK   
2560   00          BRK   
2561   00          BRK   
2562   0c          ???
2563   04          ???
2564   02          ???
2565   1f          ???
2566   17          ???
2567   00          BRK   
2568   00          BRK   
2569   08          PHP 
256a   0c          ???
256b   00          BRK   
256c   22          ???
256d   33          ???
256e   33          ???
256f   00          BRK   
2570   00          BRK   
2571   00          BRK   
2572   0c          ???
2573   04          ???
2574   22          ???
2575   22          ???
2576   22          ???
2577   00          BRK   
2578   00          BRK   
2579   00          BRK   
257a   08          PHP 
257b   0c          ???
257c   04          ???
257d   11 11 00    ORA (&0011,Y)
2580   00          BRK   
2581   00          BRK   
2582   00          BRK   
2583   00          BRK   
2584   00          BRK   
2585   0b          ???
2586   01 00 00    ORA X,&0000
2589   00          BRK   
258a   0f          ???
258b   0f          ???
258c   02          ???
258d   0f          ???
258e   07          ???
258f   00          BRK   
2590   00          BRK   
2591   00          BRK   
2592   08          PHP 
2593   0c          ???
2594   0b          ???
2595   2f          ???
2596   0f          ???
2597   01 00 00    ORA X,&0000
259a   08          PHP 
259b   04          ???
259c   0b          ???
259d   3d 1f 01    AND &011f,X
25a0   00          BRK   
25a1   00          BRK   
25a2   0c          ???
25a3   04          ???
25a4   02          ???
25a5   2f          ???
25a6   07          ???
25a7   00          BRK   
25a8   00          BRK   
25a9   08          PHP 
25aa   0c          ???
25ab   00          BRK   
25ac   22          ???
25ad   33          ???
25ae   33          ???
25af   00          BRK   
25b0   00          BRK   
25b1   00          BRK   
25b2   0c          ???
25b3   04          ???
25b4   22          ???
25b5   22          ???
25b6   22          ???
25b7   00          BRK   
25b8   00          BRK   
25b9   00          BRK   
25ba   08          PHP 
25bb   0c          ???
25bc   04          ???
25bd   11 11 00    ORA (&0011,Y)
25c0   00          BRK   
25c1   0a          ASL A
25c2   0f          ???
25c3   05 00       ORA &00
25c5   00          BRK   
25c6   00          BRK   
25c7   00          BRK   
25c8   00          BRK   
25c9   00          BRK   
25ca   0c          ???
25cb   04          ???
25cc   00          BRK   
25cd   00          BRK   
25ce   00          BRK   
25cf   00          BRK   
25d0   00          BRK   
25d1   00          BRK   
25d2   08          PHP 
25d3   04          ???
25d4   00          BRK   
25d5   00          BRK   
25d6   00          BRK   
25d7   00          BRK   
25d8   00          BRK   
25d9   00          BRK   
25da   08          PHP 
25db   04          ???
25dc   00          BRK   
25dd   00          BRK   
25de   00          BRK   
25df   00          BRK   
25e0   00          BRK   
25e1   00          BRK   
25e2   08          PHP 
25e3   0c          ???
25e4   00          BRK   
25e5   00          BRK   
25e6   00          BRK   
25e7   00          BRK   
25e8   00          BRK   
25e9   00          BRK   
25ea   08          PHP 
25eb   0c          ???
25ec   22          ???
25ed   33          ???
25ee   33          ???
25ef   00          BRK   
25f0   00          BRK   
25f1   00          BRK   
25f2   08          PHP 
25f3   0c          ???
25f4   22          ???
25f5   22          ???
25f6   22          ???
25f7   00          BRK   
25f8   00          BRK   
25f9   00          BRK   
25fa   08          PHP 
25fb   0c          ???
25fc   04          ???
25fd   11 11 00    ORA (&0011,Y)
2600   0a          ASL A
2601   0f          ???
2602   00          BRK   
2603   0f          ???
2604   05 00       ORA &00
2606   00          BRK   
2607   00          BRK   
2608   00          BRK   
2609   0c          ???
260a   00          BRK   
260b   08          PHP 
260c   04          ???
260d   00          BRK   
260e   00          BRK   
260f   00          BRK   
2610   00          BRK   
2611   08          PHP 
2612   04          ???
2613   08          PHP 
2614   04          ???
2615   00          BRK   
2616   00          BRK   
2617   00          BRK   
2618   00          BRK   
2619   08          PHP 
261a   04          ???
261b   08          PHP 
261c   04          ???
261d   00          BRK   
261e   00          BRK   
261f   00          BRK   
2620   00          BRK   
2621   08          PHP 
2622   0c          ???
2623   0c          ???
2624   04          ???
2625   00          BRK   
2626   00          BRK   
2627   00          BRK   
2628   00          BRK   
2629   00          BRK   
262a   0c          ???
262b   0c          ???
262c   22          ???
262d   33          ???
262e   33          ???
262f   00          BRK   
2630   00          BRK   
2631   00          BRK   
2632   0c          ???
2633   0c          ???
2634   22          ???
2635   22          ???
2636   22          ???
2637   00          BRK   
2638   00          BRK   
2639   00          BRK   
263a   08          PHP 
263b   0c          ???
263c   04          ???
263d   11 11 00    ORA (&0011,Y)
2640   00          BRK   
2641   0f          ???
2642   05 0a       ORA &0a
2644   0f          ???
2645   00          BRK   
2646   00          BRK   
2647   00          BRK   
2648   00          BRK   
2649   08          PHP 
264a   04          ???
264b   00          BRK   
264c   0c          ???
264d   00          BRK   
264e   00          BRK   
264f   00          BRK   
2650   00          BRK   
2651   08          PHP 
2652   04          ???
2653   08          PHP 
2654   0c          ???
2655   00          BRK   
2656   00          BRK   
2657   00          BRK   
2658   00          BRK   
2659   08          PHP 
265a   0c          ???
265b   08          PHP 
265c   04          ???
265d   00          BRK   
265e   00          BRK   
265f   00          BRK   
2660   00          BRK   
2661   00          BRK   
2662   0c          ???
2663   0c          ???
2664   04          ???
2665   00          BRK   
2666   00          BRK   
2667   00          BRK   
2668   00          BRK   
2669   00          BRK   
266a   0c          ???
266b   0c          ???
266c   22          ???
266d   33          ???
266e   33          ???
266f   00          BRK   
2670   00          BRK   
2671   00          BRK   
2672   0c          ???
2673   0c          ???
2674   22          ???
2675   22          ???
2676   22          ???
2677   00          BRK   
2678   00          BRK   
2679   00          BRK   
267a   08          PHP 
267b   0c          ???
267c   04          ???
267d   11 11 00    ORA (&0011,Y)
2680   00          BRK   
2681   00          BRK   
2682   00          BRK   
2683   00          BRK   
2684   00          BRK   
2685   00          BRK   
2686   00          BRK   
2687   00          BRK   
2688   00          BRK   
2689   00          BRK   
268a   00          BRK   
268b   00          BRK   
268c   0f          ???
268d   0f          ???
268e   00          BRK   
268f   00          BRK   
2690   00          BRK   
2691   00          BRK   
2692   00          BRK   
2693   00          BRK   
2694   0c          ???
2695   04          ???
2696   00          BRK   
2697   00          BRK   
2698   00          BRK   
2699   00          BRK   
269a   00          BRK   
269b   00          BRK   
269c   08          PHP 
269d   04          ???
269e   00          BRK   
269f   00          BRK   
26a0   00          BRK   
26a1   00          BRK   
26a2   00          BRK   
26a3   00          BRK   
26a4   08          PHP 
26a5   0c          ???
26a6   00          BRK   
26a7   00          BRK   
26a8   00          BRK   
26a9   33          ???
26aa   33          ???
26ab   11 00 0c    ORA (&0c00,Y)
26ae   04          ???
26af   00          BRK   
26b0   00          BRK   
26b1   11 11 11    ORA (&1111,Y)
26b4   08          PHP 
26b5   0c          ???
26b6   00          BRK   
26b7   00          BRK   
26b8   00          BRK   
26b9   22          ???
26ba   22          ???
26bb   08          PHP 
26bc   0c          ???
26bd   04          ???
26be   00          BRK   
26bf   00          BRK   
26c0   00          BRK   
26c1   00          BRK   
26c2   01 00 00    ORA X,&0000
26c5   00          BRK   
26c6   00          BRK   
26c7   00          BRK   
26c8   00          BRK   
26c9   02          ???
26ca   07          ???
26cb   00          BRK   
26cc   0f          ???
26cd   0f          ???
26ce   00          BRK   
26cf   00          BRK   
26d0   00          BRK   
26d1   03          ???
26d2   07          ???
26d3   01 0c 04    ORA X,&040c
26d6   00          BRK   
26d7   00          BRK   
26d8   00          BRK   
26d9   0b          ???
26da   1f          ???
26db   01 08 04    ORA X,&0408
26de   00          BRK   
26df   00          BRK   
26e0   00          BRK   
26e1   2b          ???
26e2   2f          ???
26e3   01 08 0c    ORA X,&0c08
26e6   00          BRK   
26e7   00          BRK   
26e8   00          BRK   
26e9   33          ???
26ea   33          ???
26eb   11 00 0c    ORA (&0c00,Y)
26ee   04          ???
26ef   00          BRK   
26f0   00          BRK   
26f1   11 11 11    ORA (&1111,Y)
26f4   08          PHP 
26f5   0c          ???
26f6   00          BRK   
26f7   00          BRK   
26f8   00          BRK   
26f9   22          ???
26fa   22          ???
26fb   08          PHP 
26fc   0c          ???
26fd   04          ???
26fe   00          BRK   
26ff   00          BRK   
2700   00          BRK   
2701   00          BRK   
2702   07          ???
2703   00          BRK   
2704   00          BRK   
2705   00          BRK   
2706   00          BRK   
2707   00          BRK   
2708   00          BRK   
2709   0b          ???
270a   0f          ???
270b   01 0f 0f    ORA X,&0f0f
270e   00          BRK   
270f   00          BRK   
2710   02          ???
2711   0f          ???
2712   1f          ???
2713   07          ???
2714   0c          ???
2715   04          ???
2716   00          BRK   
2717   00          BRK   
2718   02          ???
2719   2f          ???
271a   3e 07 08    ROL &0807,X
271d   04          ???
271e   00          BRK   
271f   00          BRK   
2720   00          BRK   
2721   0b          ???
2722   1f          ???
2723   01 08 0c    ORA X,&0c08
2726   00          BRK   
2727   00          BRK   
2728   00          BRK   
2729   33          ???
272a   33          ???
272b   11 00 0c    ORA (&0c00,Y)
272e   04          ???
272f   00          BRK   
2730   00          BRK   
2731   11 11 11    ORA (&1111,Y)
2734   08          PHP 
2735   0c          ???
2736   00          BRK   
2737   00          BRK   
2738   00          BRK   
2739   22          ???
273a   22          ???
273b   08          PHP 
273c   0c          ???
273d   04          ???
273e   00          BRK   
273f   00          BRK   
2740   00          BRK   
2741   00          BRK   
2742   00          BRK   
2743   00          BRK   
2744   0a          ASL A
2745   0f          ???
2746   05 00       ORA &00
2748   00          BRK   
2749   00          BRK   
274a   00          BRK   
274b   00          BRK   
274c   08          PHP 
274d   0c          ???
274e   00          BRK   
274f   00          BRK   
2750   00          BRK   
2751   00          BRK   
2752   00          BRK   
2753   00          BRK   
2754   08          PHP 
2755   04          ???
2756   00          BRK   
2757   00          BRK   
2758   00          BRK   
2759   00          BRK   
275a   00          BRK   
275b   00          BRK   
275c   08          PHP 
275d   04          ???
275e   00          BRK   
275f   00          BRK   
2760   00          BRK   
2761   00          BRK   
2762   00          BRK   
2763   00          BRK   
2764   0c          ???
2765   04          ???
2766   00          BRK   
2767   00          BRK   
2768   00          BRK   
2769   33          ???
276a   33          ???
276b   11 0c 04    ORA (&040c,Y)
276e   00          BRK   
276f   00          BRK   
2770   00          BRK   
2771   11 11 11    ORA (&1111,Y)
2774   0c          ???
2775   04          ???
2776   00          BRK   
2777   00          BRK   
2778   00          BRK   
2779   22          ???
277a   22          ???
277b   08          PHP 
277c   0c          ???
277d   04          ???
277e   00          BRK   
277f   00          BRK   
2780   00          BRK   
2781   00          BRK   
2782   00          BRK   
2783   0a          ASL A
2784   0f          ???
2785   00          BRK   
2786   0f          ???
2787   05 00       ORA &00
2789   00          BRK   
278a   00          BRK   
278b   08          PHP 
278c   04          ???
278d   00          BRK   
278e   0c          ???
278f   00          BRK   
2790   00          BRK   
2791   00          BRK   
2792   00          BRK   
2793   08          PHP 
2794   04          ???
2795   08          PHP 
2796   04          ???
2797   00          BRK   
2798   00          BRK   
2799   00          BRK   
279a   00          BRK   
279b   08          PHP 
279c   04          ???
279d   08          PHP 
279e   04          ???
279f   00          BRK   
27a0   00          BRK   
27a1   00          BRK   
27a2   00          BRK   
27a3   08          PHP 
27a4   0c          ???
27a5   0c          ???
27a6   04          ???
27a7   00          BRK   
27a8   00          BRK   
27a9   33          ???
27aa   33          ???
27ab   11 0c 0c    ORA (&0c0c,Y)
27ae   00          BRK   
27af   00          BRK   
27b0   00          BRK   
27b1   11 11 11    ORA (&1111,Y)
27b4   0c          ???
27b5   0c          ???
27b6   00          BRK   
27b7   00          BRK   
27b8   00          BRK   
27b9   22          ???
27ba   22          ???
27bb   08          PHP 
27bc   0c          ???
27bd   04          ???
27be   00          BRK   
27bf   00          BRK   
27c0   00          BRK   
27c1   00          BRK   
27c2   00          BRK   
27c3   0f          ???
27c4   05 0a       ORA &0a
27c6   0f          ???
27c7   00          BRK   
27c8   00          BRK   
27c9   00          BRK   
27ca   00          BRK   
27cb   0c          ???
27cc   00          BRK   
27cd   08          PHP 
27ce   04          ???
27cf   00          BRK   
27d0   00          BRK   
27d1   00          BRK   
27d2   00          BRK   
27d3   0c          ???
27d4   04          ???
27d5   08          PHP 
27d6   04          ???
27d7   00          BRK   
27d8   00          BRK   
27d9   00          BRK   
27da   00          BRK   
27db   08          PHP 
27dc   04          ???
27dd   0c          ???
27de   04          ???
27df   00          BRK   
27e0   00          BRK   
27e1   00          BRK   
27e2   00          BRK   
27e3   08          PHP 
27e4   0c          ???
27e5   0c          ???
27e6   00          BRK   
27e7   00          BRK   
27e8   00          BRK   
27e9   33          ???
27ea   33          ???
27eb   11 0c 0c    ORA (&0c0c,Y)
27ee   00          BRK   
27ef   00          BRK   
27f0   00          BRK   
27f1   11 11 11    ORA (&1111,Y)
27f4   0c          ???
27f5   04          ???
27f6   00          BRK   
27f7   00          BRK   
27f8   00          BRK   
27f9   22          ???
27fa   22          ???
27fb   08          PHP 
27fc   0c          ???
27fd   04          ???
27fe   00          BRK   
27ff   00          BRK   
2800   ff          ???
2801   ff          ???
2802   ff          ???
2803   ff          ???
2804   ff          ???
2805   ff          ???
2806   55 ff       EOR &ff,X
2808   ff          ???
2809   ff          ???
280a   aa          TAX 
280b   ff          ???
280c   ff          ???
280d   ff          ???
280e   55 55       EOR &55,X
2810   55 aa       EOR &aa,X
2812   55 aa       EOR &aa,X
2814   55 55       EOR &55,X
2816   55 aa       EOR &aa,X
2818   aa          TAX 
2819   aa          TAX 
281a   55 55       EOR &55,X
281c   00          BRK   
281d   55 00       EOR &00,X
281f   55 aa       EOR &aa,X
2821   00          BRK   
2822   aa          TAX 
2823   00          BRK   
2824   aa          TAX 
2825   00          BRK   
2826   55 00       EOR &00,X
2828   00          BRK   
2829   aa          TAX 
282a   00          BRK   
282b   55 55       EOR &55,X
282d   00          BRK   
282e   aa          TAX 
282f   aa          TAX 
2830   00          BRK   
2831   aa          TAX 
2832   00          BRK   
2833   55 00       EOR &00,X
2835   00          BRK   
2836   aa          TAX 
2837   00          BRK   
2838   00          BRK   
2839   55 aa       EOR &aa,X
283b   00          BRK   
283c   00          BRK   
283d   aa          TAX 
283e   00          BRK   
283f   00          BRK   
2840   55 00       EOR &00,X
2842   55 00       EOR &00,X
2844   55 00       EOR &00,X
2846   aa          TAX 
2847   00          BRK   
2848   00          BRK   
2849   00          BRK   
284a   aa          TAX 
284b   00          BRK   
284c   00          BRK   
284d   55 20       EOR &20,X
284f   20 22 aa    JSR &aa22
2852   5a          ???
2853   0a          ASL A
2854   ba          TSX 
2855   6a          ROR A
2856   1a          ???
2857   a2 70       LDX #&70
2859   28          PLP 
285a   7f          ???
285b   7e 7e 7e    ROR &7e7e,X
285e   7d 7d 7d    ADC &7d7d,X
2861   7c          ???
2862   7f          ???
2863   7c          ???
2864   ba          TSX 
2865   95 70       STA &70,X
2867   4b          ???
2868   26 01       ROL &01
286a   dc          ???
286b   b7          ???
286c   99 78 10    STA &1078,Y
286f   10 10       BPL  16       2881
2871   10 10       BPL  16       2883
2873   10 0f       BPL  15       2884
2875   0f          ???
2876   0f          ???
2877   0f          ???
2878   81 9d 83    STA &839d
287b   8d 20 20    STA &2020                    ; "JET-PAC Selection Page"
287e   20 20 20    JSR &2020
2881   20 4a 45    JSR &454a
2884   54          ???
2885   2d 50 41    AND &4150
2888   43          ???
2889   20 53 65    JSR &6553
288c   6c 65 63    JMP (&6365)
288f   74          ???
2890   69 6f       ADC #&6f
2892   6e 20 50    ROR &5020
2895   61 67 65    ADC X,&6567
2898   0d 81 9d    ORA &9d81
289b   83          ???
289c   8d 20 20    STA &2020
289f   20 20 20    JSR &2020
28a2   20 28 43    JSR &4328
28a5   29 20       AND &20
28a7   31 39 38    AND (&3839,Y)
28aa   33          ???
28ab   20 41 2e    JSR &2e41
28ae   43          ???
28af   2e 47 2e    ROL &2e47
28b2   20 4c 54    JSR &544c
28b5   44          ???
28b6   0d 86 66    ORA &6686
28b9   30 20       BMI  32       28db
28bb   2e 2e 2e    ROL &2e2e
28be   2e 2e 2e    ROL &2e2e
28c1   2e 2e 2e    ROL &2e2e
28c4   2e 2e 2e    ROL &2e2e
28c7   2e 2e 2e    ROL &2e2e
28ca   86 56       STX &56
28cc   69 65       ADC #&65
28ce   77          ???
28cf   20 48 69    JSR &6948
28d2   67          ???
28d3   68          PLA 
28d4   20 53 63    JSR &6353
28d7   6f          ???
28d8   72          ???
28d9   65 73       ADC &73
28db   0d 86 66    ORA &6686
28de   31 20 2e    AND (&2e20,Y)
28e1   2e 2e 2e    ROL &2e2e
28e4   2e 2e 2e    ROL &2e2e
28e7   2e 2e 2e    ROL &2e2e
28ea   2e 2e 2e    ROL &2e2e
28ed   2e 2e 2e    ROL &2e2e
28f0   20 4f 6e    JSR &6e4f
28f3   65 20       ADC &20
28f5   50 6c       BVC 108       2963
28f7   61 79 65    ADC X,&6579
28fa   72          ???
28fb   20 47 61    JSR &6147
28fe   6d 65 0d    ADC &0d65
2901   20 66 32    JSR &3266
2904   20 2e 2e    JSR &2e2e
2907   2e 2e 2e    ROL &2e2e
290a   2e 2e 2e    ROL &2e2e
290d   2e 2e 2e    ROL &2e2e
2910   2e 2e 2e    ROL &2e2e
2913   2e 2e 20    ROL &202e
2916   54          ???
2917   77          ???
2918   6f          ???
2919   20 50 6c    JSR &6c50
291c   61 79 65    ADC X,&6579
291f   72          ???
2920   20 47 61    JSR &6147
2923   6d 65 0d    ADC &0d65
2926   00          BRK   
2927   66 33       ROR &33
2929   20 2e 2e    JSR &2e2e
292c   2e 2e 2e    ROL &2e2e
292f   2e 2e 2e    ROL &2e2e
2932   2e 2e 2e    ROL &2e2e
2935   2e 2e 2e    ROL &2e2e
2938   2e 2e 2e    ROL &2e2e
293b   2e 2e 2e    ROL &2e2e
293e   2e 2e 2e    ROL &2e2e
2941   20 4b 65    JSR &654b
2944   79 62 6f    ADC &6f62,Y
2947   61 72 64    ADC X,&6472
294a   0d 86 66    ORA &6686
294d   34          ???
294e   20 2e 2e    JSR &2e2e
2951   2e 2e 2e    ROL &2e2e
2954   2e 2e 2e    ROL &2e2e
2957   2e 2e 2e    ROL &2e2e
295a   2e 2e 2e    ROL &2e2e
295d   2e 2e 2e    ROL &2e2e
2960   2e 2e 2e    ROL &2e2e
2963   2e 2e 20    ROL &202e
2966   4a          LSR A
2967   6f          ???
2968   79 73 74    ADC &7473,Y
296b   69 63       ADC #&63
296d   6b          ???
296e   73          ???
296f   0d 00 66    ORA &6600
2972   35 20       AND &20,X
2974   2e 2e 2e    ROL &2e2e
2977   2e 2e 2e    ROL &2e2e
297a   2e 2e 2e    ROL &2e2e
297d   2e 2e 2e    ROL &2e2e
2980   2e 2e 2e    ROL &2e2e
2983   2e 2e 2e    ROL &2e2e
2986   2e 2e 2e    ROL &2e2e
2989   2e 2e 20    ROL &202e
298c   53          ???
298d   6f          ???
298e   75 6e       ROR &6e,X
2990   64          ???
2991   20 4f 6e    JSR &6e4f
2994   0d 86 66    ORA &6686
2997   36 20       ROL &20,X
2999   2e 2e 2e    ROL &2e2e
299c   2e 2e 2e    ROL &2e2e
299f   2e 2e 2e    ROL &2e2e
29a2   2e 2e 2e    ROL &2e2e
29a5   2e 2e 2e    ROL &2e2e
29a8   2e 2e 2e    ROL &2e2e
29ab   2e 2e 2e    ROL &2e2e
29ae   2e 20 53    ROL &5320
29b1   6f          ???
29b2   75 6e       ROR &6e,X
29b4   64          ???
29b5   20 4f 66    JSR &664f
29b8   66 0d       ROR &0d
29ba   86 53       STX &53
29bc   70 61       BVS  97       2a1f
29be   63          ???
29bf   65 20       ADC &20
29c1   42          ???
29c2   61 72 20    ADC X,&2072
29c5   2e 2e 2e    ROL &2e2e
29c8   2e 2e 2e    ROL &2e2e
29cb   2e 2e 2e    ROL &2e2e
29ce   2e 2e 86    ROL &862e
29d1   43          ???
29d2   6f          ???
29d3   6d 6d 65    ADC &656d
29d6   6e 63 65    ROR &6563
29d9   20 47 61    JSR &6147
29dc   6d 65 0d    ADC &0d65
29df   a9 fd       LDA #&fd
29e1   d0 02       BNE   2       29e5
29e3   a9 03       LDA #&03
29e5   9d 5c 06    STA &065c,X
29e8   60          RTS 
29e9   a5 60       LDA &60
29eb   c9 04       CMP #&04
29ed   d0 03       BNE   3       29f2
29ef   20 ef 24    JSR &24ef
29f2   c9 07       CMP #&07
29f4   f0 f9       BEQ  -7       29ef
29f6   4c 14 2e    JMP &2e14
29f9   20 bc 2d    JSR &2dbc
29fc   4c bc 2d    JMP &2dbc
29ff   ea          NOP 
2a00   8e 19 11    STX &1119
2a03   8c 1a 11    STY &111a
2a06   aa          TAX 
2a07   a4 52       LDY &52
2a09   a5 53       LDA &53
2a0b   85 31       STA &31
2a0d   a5 54       LDA &54
2a0f   85 32       STA &32
2a11   84 2f       STY &2f
2a13   a9 08       LDA #&08
2a15   85 34       STA &34
2a17   18          CLC 
2a18   bd 00 09    LDA &0900,X
2a1b   f0 04       BEQ   4       2a21
2a1d   51 31 91    EOR (&9131,Y)
2a20   31 c6 34    AND (&34c6,Y)
2a23   f0 07       BEQ   7       2a2c
2a25   ca          DEX 
2a26   98          TYA 
2a27   69 08       ADC #&08
2a29   a8          TAY 
2a2a   d0 ec       BNE -20       2a18
2a2c   8a          TXA 
2a2d   f0 1a       BEQ  26       2a49
2a2f   ca          DEX 
2a30   e6 2f       INC &2f
2a32   a5 2f       LDA &2f
2a34   a8          TAY 
2a35   29 07       AND &07
2a37   d0 d0       BNE -48       2a09
2a39   a5 53       LDA &53
2a3b   69 78       ADC #&78
2a3d   85 53       STA &53
2a3f   85 31       STA &31
2a41   a5 54       LDA &54
2a43   69 02       ADC #&02
2a45   85 54       STA &54
2a47   d0 c6       BNE -58       2a0f
2a49   60          RTS 
2a4a   ad 55 03    LDA &0355
2a4d   c9 07       CMP #&07
2a4f   90 08       BCC   8       2a59
2a51   a9 0c       LDA #&0c
2a53   20 ee ff    JSR &ffee
2a56   4c a3 1f    JMP &1fa3
2a59   a9 0c       LDA #&0c
2a5b   4c ee ff    JMP &ffee
2a5e   20 d9 11    JSR &11d9
2a61   a9 30       LDA #&30
2a63   8d 86 11    STA &1186
2a66   8d 8d 11    STA &118d
2a69   20 74 11    JSR &1174
2a6c   a9 2f       LDA #&2f
2a6e   8d 86 11    STA &1186
2a71   8d 8d 11    STA &118d
2a74   a2 00       LDX #&00
2a76   ca          DEX 
2a77   18          CLC 
2a78   a4 14       LDY &14
2a7a   84 13       STY &13
2a7c   a4 52       LDY &52
2a7e   84 12       STY &12
2a80   a9 08       LDA #&08
2a82   85 30       STA &30
2a84   bd 00 29    LDA &2900,X
2a87   51 53 91    EOR (&9153,Y)
2a8a   53          ???
2a8b   bd 00 29    LDA &2900,X
2a8e   a4 13       LDY &13
2a90   51 10 91    EOR (&9110,Y)
2a93   10 c6       BPL -58       2a5b
2a95   30 f0       BMI -16       2a87
2a97   0f          ???
2a98   ca          DEX 
2a99   98          TYA 
2a9a   69 08       ADC #&08
2a9c   85 13       STA &13
2a9e   a5 12       LDA &12
2aa0   69 08       ADC #&08
2aa2   85 12       STA &12
2aa4   a8          TAY 
2aa5   90 dd       BCC -35       2a84
2aa7   a4 14       LDY &14
2aa9   c8          INY 
2aaa   c0 08       CPY #&08
2aac   90 0e       BCC  14       2abc
2aae   a0 00       LDY #&00
2ab0   a5 10       LDA &10
2ab2   69 7f       ADC #&7f
2ab4   85 10       STA &10
2ab6   a5 11       LDA &11
2ab8   69 02       ADC #&02
2aba   85 11       STA &11
2abc   84 14       STY &14
2abe   a4 52       LDY &52
2ac0   c8          INY 
2ac1   c0 08       CPY #&08
2ac3   90 0e       BCC  14       2ad3
2ac5   a0 00       LDY #&00
2ac7   a5 53       LDA &53
2ac9   69 7f       ADC #&7f
2acb   85 53       STA &53
2acd   a5 54       LDA &54
2acf   69 02       ADC #&02
2ad1   85 54       STA &54
2ad3   84 52       STY &52
2ad5   8a          TXA 
2ad6   d0 9e       BNE -98       2a76
2ad8   60          RTS 
2ad9   a9 60       LDA #&60
2adb   85 50       STA &50
2add   a5 87       LDA &87
2adf   85 51       STA &51
2ae1   4c 24 2e    JMP &2e24
2ae4   20 d9 11    JSR &11d9
2ae7   85 14       STA &14
2ae9   a5 53       LDA &53
2aeb   85 10       STA &10
2aed   a5 54       LDA &54
2aef   85 11       STA &11
2af1   60          RTS 
2af2   a9 c9       LDA #&c9
2af4   a2 ff       LDX #&ff
2af6   a0 00       LDY #&00
2af8   20 f4 ff    JSR &fff4                    ; OSBYTE 201 - Disable keyboard
2afb   4c d5 14    JMP &14d5
2afe   a0 e0       LDY #&e0
2b00   a9 0c       LDA #&0c
2b02   a2 00       LDX #&00
2b04   20 f4 ff    JSR &fff4                    ; OSBYTE 12 - Set repeat interval to 0 centiseconds
2b07   ea          NOP 
2b08   ea          NOP 
2b09   ea          NOP 
2b0a   20 08 21    JSR &2108
2b0d   a5 24       LDA &24
2b0f   d0 0c       BNE  12       2b1d
2b11   a9 d2       LDA #&d2
2b13   a2 00       LDX #&00
2b15   a0 00       LDY #&00
2b17   20 f4 ff    JSR &fff4                    ; OSBYTE 210 - Disable sound
2b1a   20 f2 11    JSR &11f2
2b1d   20 6e 17    JSR &176e
2b20   a9 0b       LDA #&0b
2b22   a2 00       LDX #&00
2b24   20 f4 ff    JSR &fff4                    ; OSBYTE 11 - Disable keyboard auto-repeat
2b27   a9 00       LDA #&00
2b29   85 22       STA &22
2b2b   4c d2 12    JMP &12d2
2b2e   a9 00       LDA #&00
2b30   85 20       STA &20
2b32   8d dc 0f    STA &0fdc
2b35   a9 86       LDA #&86
2b37   8d 01 10    STA &1001
2b3a   60          RTS 
2b3b   a9 00       LDA #&00
2b3d   85 21       STA &21
2b3f   8d 26 10    STA &1026
2b42   a9 86       LDA #&86
2b44   8d 4b 10    STA &104b
2b47   60          RTS 
2b48   a9 86       LDA #&86
2b4a   8d 95 10    STA &1095
2b4d   a2 00       LDX #&00
2b4f   86 24       STX &24
2b51   8e 70 10    STX &1070
2b54   60          RTS 
2b55   a0 00       LDY #&00
2b57   a9 d2       LDA #&d2
2b59   4c f4 ff    JMP &fff4
2b5c   a9 00       LDA #&00
2b5e   85 22       STA &22
2b60   85 23       STA &23
2b62   20 2e 12    JSR &122e
2b65   20 3b 12    JSR &123b
2b68   20 48 12    JSR &1248
2b6b   20 b0 15    JSR &15b0
2b6e   a9 ff       LDA #&ff
2b70   85 23       STA &23
2b72   a9 00       LDA #&00
2b74   85 22       STA &22
2b76   20 e0 ff    JSR &ffe0
2b79   c9 20       CMP #&20
2b7b   f0 83       BEQ 125       2b00
2b7d   c9 81       CMP #&81
2b7f   f0 26       BEQ  38       2ba7
2b81   c9 82       CMP #&82
2b83   f0 27       BEQ  39       2bac
2b85   c9 83       CMP #&83
2b87   f0 31       BEQ  49       2bba
2b89   c9 84       CMP #&84
2b8b   f0 32       BEQ  50       2bbf
2b8d   c9 80       CMP #&80
2b8f   f0 41       BEQ  65       2bd2
2b91   c9 85       CMP #&85
2b93   f0 38       BEQ  56       2bcd
2b95   c9 86       CMP #&86
2b97   d0 dd       BNE -35       2b76
2b99   a9 20       LDA #&20
2b9b   85 24       STA &24
2b9d   8d 95 10    STA &1095
2ba0   a9 86       LDA #&86
2ba2   8d 70 10    STA &1070
2ba5   d0 c4       BNE -60       2b6b
2ba7   20 2e 12    JSR &122e
2baa   d0 bf       BNE -65       2b6b
2bac   a9 20       LDA #&20
2bae   85 20       STA &20
2bb0   8d 01 10    STA &1001
2bb3   a9 86       LDA #&86
2bb5   8d dc 0f    STA &0fdc
2bb8   d0 b1       BNE -79       2b6b
2bba   20 3b 12    JSR &123b
2bbd   d0 ac       BNE -84       2b6b
2bbf   a9 20       LDA #&20
2bc1   85 21       STA &21
2bc3   8d 4b 10    STA &104b
2bc6   a9 86       LDA #&86
2bc8   8d 26 10    STA &1026
2bcb   d0 9e       BNE -98       2b6b
2bcd   20 48 12    JSR &1248
2bd0   f0 99       BEQ 103       2b6b
2bd2   a9 0f       LDA #&0f
2bd4   20 f4 ff    JSR &fff4
2bd7   a5 22       LDA &22
2bd9   d0 0e       BNE  14       2be9
2bdb   a9 ff       LDA #&ff
2bdd   85 22       STA &22
2bdf   20 32 1b    JSR &1b32
2be2   a9 00       LDA #&00
2be4   85 23       STA &23
2be6   4c 76 12    JMP &1276
2be9   4c 6b 12    JMP &126b
2bec   a9 03       LDA #&03
2bee   20 10 0b    JSR &0b10
2bf1   4c f0 2a    JMP &2af0
2bf4   ea          NOP 
2bf5   ea          NOP 
2bf6   ea          NOP 
2bf7   ea          NOP 
2bf8   ea          NOP 
2bf9   ea          NOP 
2bfa   ea          NOP 
2bfb   ea          NOP 
2bfc   ea          NOP 
2bfd   ea          NOP 
2bfe   16 07       ASL &07,X
2c00   0a          ASL A
2c01   81 9d 8d    STA &8d9d
2c04   83          ???
2c05   1f          ???
2c06   0b          ???
2c07   01 4a 45    ORA X,&454a
2c0a   54          ???
2c0b   2d 50 41    AND &4150
2c0e   43          ???
2c0f   20 48 69    JSR &6948
2c12   67          ???
2c13   68          PLA 
2c14   20 53 63    JSR &6353
2c17   6f          ???
2c18   72          ???
2c19   65 73       ADC &73
2c1b   1f          ???
2c1c   00          BRK   
2c1d   02          ???
2c1e   81 9d 8d    STA &8d9d
2c21   83          ???
2c22   1f          ???
2c23   0b          ???
2c24   02          ???
2c25   4a          LSR A
2c26   45 54       EOR &54
2c28   2d 50 41    AND &4150
2c2b   43          ???
2c2c   20 48 69    JSR &6948
2c2f   67          ???
2c30   68          PLA 
2c31   20 53 63    JSR &6353
2c34   6f          ???
2c35   72          ???
2c36   65 73       ADC &73
2c38   09 1f       ORA &1f
2c3a   00          BRK   
2c3b   16 81       ASL &81,X
2c3d   9d 8d 83    STA &838d,X
2c40   20 20 00    JSR &0020
2c43   50 72       BVC 114       2cb7
2c45   65 73       ADC &73
2c47   73          ???
2c48   20 27 66    JSR &6627
2c4b   30 27       BMI  39       2c74
2c4d   20 66 6f    JSR &6f66
2c50   72          ???
2c51   20 53 65    JSR &6553
2c54   6c 65 63    JMP (&6365)
2c57   74          ???
2c58   69 6f       ADC #&6f
2c5a   6e 20 50    ROR &5020
2c5d   61 67 65    ADC X,&6567
2c60   1f          ???
2c61   00          BRK   
2c62   17          ???
2c63   81 9d 8d    STA &8d9d
2c66   83          ???
2c67   20 20 00    JSR &0020
2c6a   50 72       BVC 114       2cde
2c6c   65 73       ADC &73
2c6e   73          ???
2c6f   20 27 66    JSR &6627
2c72   30 27       BMI  39       2c9b
2c74   20 66 6f    JSR &6f66
2c77   72          ???
2c78   20 53 65    JSR &6553
2c7b   6c 65 63    JMP (&6365)
2c7e   74          ???
2c7f   69 6f       ADC #&6f
2c81   6e 20 50    ROR &5020
2c84   61 67 65    ADC X,&6567
2c87   0d 8d 47    ORA &478d
2c8a   61 6d 65    ADC X,&656d
2c8d   20 4f 76    JSR &764f
2c90   65 72       ADC &72
2c92   20 70 6c    JSR &6c70
2c95   61 79 65    ADC X,&6579
2c98   72          ???
2c99   20 0d 16    JSR &160d
2c9c   07          ???
2c9d   1f          ???
2c9e   04          ???
2c9f   08          PHP 
2ca0   8d 81 43    STA &4381
2ca3   6f          ???
2ca4   6e 67 72    ROR &7267
2ca7   61 74 75    ADC X,&7574
2caa   6c 61 74    JMP (&7461)
2cad   69 6f       ADC #&6f
2caf   6e 73 20    ROR &2073
2cb2   79 6f 75    ADC &756f,Y
2cb5   20 61 72    JSR &7261
2cb8   65 0d       ADC &0d
2cba   1f          ???
2cbb   02          ???
2cbc   0c          ???
2cbd   86 50       STX &50
2cbf   6c 65 61    JMP (&6165)
2cc2   73          ???
2cc3   65 20       ADC &20
2cc5   74          ???
2cc6   79 70 65    ADC &6570,Y
2cc9   20 69 6e    JSR &6e69
2ccc   20 79 6f    JSR &6f79
2ccf   75 72       ROR &72,X
2cd1   20 6e 61    JSR &616e
2cd4   6d 65 20    ADC &2065
2cd7   70 6c       BVS 108       2d45
2cd9   61 79 65    ADC X,&6579
2cdc   72          ???
2cdd   20 0d 1f    JSR &1f0d
2ce0   02          ???
2ce1   0e 84 9d    ASL &9d84
2ce4   83          ???
2ce5   1f          ???
2ce6   24 0e       BIT &0e
2ce8   9c          ???
2ce9   1f          ???
2cea   05 0e       ORA &0e
2cec   0d 20 31    ORA &3120
2cef   73          ???
2cf0   74          ???
2cf1   20 32 6e    JSR &6e32
2cf4   64          ???
2cf5   20 33 72    JSR &7233
2cf8   64          ???
2cf9   20 34 74    JSR &7434
2cfc   68          PLA 
2cfd   20 35 74    JSR &7435
2d00   68          PLA 
2d01   20 36 74    JSR &7436
2d04   68          PLA 
2d05   20 37 74    JSR &7437
2d08   68          PLA 
2d09   20 38 74    JSR &7438
2d0c   68          PLA 
2d0d   0d 74 68    ORA &6874
2d10   2c 60 78    BIT &7860
2d13   7c          ???
2d14   78          SEI 
2d15   60          RTS 
2d16   37          ???
2d17   46 10       LSR &10
2d19   00          BRK   
2d1a   f1 ff       SBC  -1       2d1b
2d1c   03          ???
2d1d   00          BRK   
2d1e   14          ???
2d1f   00          BRK   
2d20   00          BRK   
2d21   00          BRK   
2d22   30 00       BMI   0       2d24
2d24   00          BRK   
2d25   30 00       BMI   0       2d27
2d27   1c          ???
2d28   18          CLC 
2d29   14          ???
2d2a   00          BRK   
2d2b   00          BRK   
2d2c   30 00       BMI   0       2d2e
2d2e   00          BRK   
2d2f   30 00       BMI   0       2d31
2d31   1c          ???
2d32   18          CLC 
2d33   14          ???
2d34   10 10       BPL  16       2d46
2d36   40          RTI 
2d37   10 10       BPL  16       2d49
2d39   40          RTI 
2d3a   10 14       BPL  20       2d50
2d3c   18          CLC 
2d3d   1c          ???
2d3e   00          BRK   
2d3f   00          BRK   
2d40   30 00       BMI   0       2d42
2d42   00          BRK   
2d43   30 00       BMI   0       2d45
2d45   30 88       BMI 120       2ccf
2d47   32          ???
2d48   12          ???
2d49   00          BRK   
2d4a   04          ???
2d4b   00          BRK   
2d4c   60          RTS 
2d4d   50 03       BVC   3       2d52
2d4f   00          BRK   
2d50   a9 00       LDA #&00
2d52   85 50       STA &50
2d54   85 51       STA &51
2d56   a6 50       LDX &50
2d58   bd 20 14    LDA &1420,X
2d5b   18          CLC 
2d5c   69 30       ADC #&30
2d5e   8d 4c 14    STA &144c
2d61   a5 51       LDA &51
2d63   69 11       ADC #&11
2d65   8d 48 14    STA &1448
2d68   a2 48       LDX #&48
2d6a   a0 14       LDY #&14
2d6c   a9 07       LDA #&07
2d6e   20 f1 ff    JSR &fff1
2d71   a9 81       LDA #&81
2d73   a2 0f       LDX #&0f
2d75   a0 00       LDY #&00
2d77   20 f4 ff    JSR &fff4                    ; Keyboard
2d7a   e6 51       INC &51
2d7c   a5 51       LDA &51
2d7e   c9 03       CMP #&03
2d80   90 04       BCC   4       2d86
2d82   a9 00       LDA #&00
2d84   85 51       STA &51
2d86   e6 50       INC &50
2d88   a5 50       LDA &50
2d8a   c9 26       CMP #&26
2d8c   90 c8       BCC -56       2d56
2d8e   a9 00       LDA #&00
2d90   85 51       STA &51
2d92   e6 50       INC &50
2d94   a5 50       LDA &50
2d96   c9 26       CMP #&26
2d98   90 c8       BCC -56       2d62
2d9a   a9 c9       LDA #&c9
2d9c   a2 00       LDX #&00
2d9e   a0 00       LDY #&00
2da0   4c f4 ff    JMP &fff4                    ; OSBYTE 201 - Enable keyboard
2da3   a9 16       LDA #&16
2da5   20 ee ff    JSR &ffee
2da8   a9 05       LDA #&05                     ; Mode 5?
2daa   20 ee ff    JSR &ffee
2dad   a2 e0       LDX #&e0
2daf   60          RTS 
2db0   ea          NOP 
2db1   4c 15 17    JMP &1715
2db4   a9 1f       LDA #&1f
2db6   20 ee ff    JSR &ffee
2db9   a5 67       LDA &67
2dbb   c9 02       CMP #&02
2dbd   d0 04       BNE   4       2dc3
2dbf   a9 06       LDA #&06
2dc1   d0 02       BNE   2       2dc5
2dc3   a9 0d       LDA #&0d
2dc5   20 ee ff    JSR &ffee
2dc8   a9 00       LDA #&00
2dca   20 ee ff    JSR &ffee
2dcd   a9 2d       LDA #&2d
2dcf   20 ee ff    JSR &ffee
2dd2   4c 31 1a    JMP &1a31
2dd5   a9 0f       LDA #&0f
2dd7   20 f4 ff    JSR &fff4
2dda   a9 7c       LDA #&7c
2ddc   20 f4 ff    JSR &fff4
2ddf   4c 50 14    JMP &1450
2de2   a9 7c       LDA #&7c
2de4   20 f4 ff    JSR &fff4
2de7   4c db 1b    JMP &1bdb
2dea   a9 0a       LDA #&0a
2dec   48          PHA 
2ded   a9 1c       LDA #&1c
2def   20 10 0b    JSR &0b10
2df2   20 e6 21    JSR &21e6
2df5   20 74 22    JSR &2274
2df8   68          PLA 
2df9   38          SEC 
2dfa   e9 01       SBC #&01
2dfc   d0 ee       BNE -18       2dec
2dfe   60          RTS 
2dff   ea          NOP 
2e00   a2 b6       LDX #&b6
2e02   a0 b6       LDY #&b6
2e04   a9 81       LDA #&81
2e06   20 f4 ff    JSR &fff4                    ; Keyboard
2e09   8a          TXA 
2e0a   f0 07       BEQ   7       2e13
2e0c   a5 7b       LDA &7b
2e0e   f0 06       BEQ   6       2e16
2e10   c6 7b       DEC &7b
2e12   60          RTS 
2e13   86 7b       STX &7b
2e15   60          RTS 
2e16   a2 03       LDX #&03
2e18   86 7b       STX &7b
2e1a   a2 08       LDX #&08
2e1c   bd 6f 06    LDA &066f,X
2e1f   30 04       BMI   4       2e25
2e21   ca          DEX 
2e22   d0 f8       BNE  -8       2e1c
2e24   60          RTS 
2e25   ca          DEX 
2e26   a9 00       LDA #&00
2e28   9d 70 06    STA &0670,X
2e2b   9d 40 04    STA &0440,X
2e2e   9d 50 04    STA &0450,X
2e31   20 14 2e    JSR &2e14
2e34   a5 58       LDA &58
2e36   29 03       AND &03
2e38   69 0a       ADC #&0a
2e3a   9d 60 04    STA &0460,X
2e3d   a5 73       LDA &73
2e3f   9d 70 04    STA &0470,X
2e42   18          CLC 
2e43   10 0c       BPL  12       2e51
2e45   a5 5c       LDA &5c
2e47   e9 01       SBC #&01
2e49   c9 a0       CMP #&a0
2e4b   90 0e       BCC  14       2e5b
2e4d   69 9f       ADC #&9f
2e4f   d0 0a       BNE  10       2e5b
2e51   a5 5c       LDA &5c
2e53   69 10       ADC #&10
2e55   c9 a0       CMP #&a0
2e57   90 02       BCC   2       2e5b
2e59   e9 a0       SBC #&a0
2e5b   85 50       STA &50
2e5d   4a          LSR A
2e5e   9d 00 04    STA &0400,X
2e61   a5 5d       LDA &5d
2e63   18          CLC 
2e64   69 0c       ADC #&0c
2e66   a4 75       LDY &75
2e68   d0 02       BNE   2       2e6c
2e6a   65 78       ADC &78
2e6c   9d 10 04    STA &0410,X
2e6f   85 51       STA &51
2e71   20 24 2e    JSR &2e24
2e74   a5 54       LDA &54
2e76   9d 30 04    STA &0430,X
2e79   a5 53       LDA &53
2e7b   9d 20 04    STA &0420,X
2e7e   a4 52       LDY &52
2e80   a9 ff       LDA #&ff
2e82   51 53 91    EOR (&9153,Y)
2e85   53          ???
2e86   20 14 2e    JSR &2e14
2e89   a5 58       LDA &58
2e8b   29 07       AND &07
2e8d   c9 07       CMP #&07
2e8f   b0 f5       BCS -11       2e86
2e91   69 f0       ADC #&f0
2e93   8d 21 fe    STA &fe21                    ; Reprogram colour for laser
2e96   a2 38       LDX #&38
2e98   4c fc 2a    JMP &2afc
2e9b   a9 16       LDA #&16                     ; Set initial mode 7
2e9d   20 ee ff    JSR &ffee
2ea0   a9 07       LDA #&07
2ea2   20 ee ff    JSR &ffee
2ea5   a9 0a       LDA #&0a
2ea7   8d 00 fe    STA &fe00
2eaa   a9 20       LDA #&20
2eac   8d 01 fe    STA &fe01
2eaf   60          RTS 
2eb0   a5 23       LDA &23
2eb2   d0 03       BNE   3       2eb7
2eb4   20 9b 15    JSR &159b
2eb7   a2 09       LDX #&09
2eb9   86 30       STX &30
2ebb   bd 50 0f    LDA &0f50,X
2ebe   85 50       STA &50
2ec0   bd 5a 0f    LDA &0f5a,X
2ec3   85 51       STA &51
2ec5   bd 64 0f    LDA &0f64,X
2ec8   bc 6e 0f    LDY &0f6e,X
2ecb   20 d5 15    JSR &15d5
2ece   c6 30       DEC &30
2ed0   a6 30       LDX &30
2ed2   10 e7       BPL -25       2ebb
2ed4   60          RTS 
2ed5   8c ed 15    STY &15ed
2ed8   8d ec 15    STA &15ec
2edb   a0 00       LDY #&00
2edd   20 e9 15    JSR &15e9
2ee0   a5 30       LDA &30
2ee2   c9 08       CMP #&08
2ee4   a0 28       LDY #&28
2ee6   b0 01       BCS   1       2ee9
2ee8   60          RTS 
2ee9   a2 00       LDX #&00
2eeb   bd ba 10    LDA &10ba,X
2eee   91 50 e8    STA (&e850,Y)
2ef1   c8          INY 
2ef2   c9 0d       CMP #&0d
2ef4   d0 f5       BNE -11       2eeb
2ef6   60          RTS 
2ef7   ea          NOP 
2ef8   20 14 2e    JSR &2e14
2efb   a5 58       LDA &58
2efd   60          RTS 
2efe   ea          NOP 
2eff   ea          NOP 
2f00   bd 10 04    LDA &0410,X
2f03   29 07       AND &07
2f05   18          CLC 
2f06   7d 20 04    ADC &0420,X
2f09   a8          TAY 
2f0a   bd 30 04    LDA &0430,X
2f0d   69 00       ADC #&00
2f0f   85 54       STA &54
2f11   a9 00       LDA #&00
2f13   85 53       STA &53
2f15   bd 50 04    LDA &0450,X
2f18   85 30       STA &30
2f1a   7d 40 04    ADC &0440,X
2f1d   60          RTS 
2f1e   20 00 16    JSR &1600
2f21   8d 35 16    STA &1635
2f24   a9 51       LDA #&51
2f26   fd 00 04    SBC &0400,X
2f29   20 88 16    JSR &1688
2f2c   bd 00 0f    LDA &0f00,X
2f2f   51 53 91    EOR (&9153,Y)
2f32   53          ???
2f33   e8          INX 
2f34   e0 00       CPX #&00
2f36   b0 5b       BCS  91       2f93
2f38   98          TYA 
2f39   69 08       ADC #&08
2f3b   a8          TAY 
2f3c   90 02       BCC   2       2f40
2f3e   e6 54       INC &54
2f40   c6 2f       DEC &2f
2f42   d0 e8       BNE -24       2f2c
2f44   a5 53       LDA &53
2f46   38          SEC 
2f47   e9 80       SBC #&80
2f49   85 53       STA &53
2f4b   a5 54       LDA &54
2f4d   e9 02       SBC #&02
2f4f   85 54       STA &54
2f51   b0 d9       BCS -39       2f2c
2f53   20 00 16    JSR &1600
2f56   8d 6a 16    STA &166a
2f59   bd 00 04    LDA &0400,X
2f5c   69 01       ADC #&01
2f5e   20 88 16    JSR &1688
2f61   bd 00 0f    LDA &0f00,X
2f64   51 53 91    EOR (&9153,Y)
2f67   53          ???
2f68   e8          INX 
2f69   e0 00       CPX #&00
2f6b   b0 26       BCS  38       2f93
2f6d   98          TYA 
2f6e   e9 07       SBC #&07
2f70   a8          TAY 
2f71   b0 02       BCS   2       2f75
2f73   c6 54       DEC &54
2f75   c6 2f       DEC &2f
2f77   d0 e8       BNE -24       2f61
2f79   a5 53       LDA &53
2f7b   18          CLC 
2f7c   69 80       ADC #&80
2f7e   85 53       STA &53
2f80   a5 54       LDA &54
2f82   69 02       ADC #&02
2f84   85 54       STA &54
2f86   90 d9       BCC -39       2f61
2f88   85 2f       STA &2f
2f8a   a6 30       LDX &30
2f8c   bd 00 0f    LDA &0f00,X
2f8f   51 53 85    EOR (&8553,Y)
2f92   2e 60 a9    ROL &a960
2f95   01 85 75    ORA X,&7585
2f98   4c f4 12    JMP &12f4
2f9b   ea          NOP 
2f9c   ea          NOP 
2f9d   a5 7e       LDA &7e
2f9f   85 50       STA &50
2fa1   c9 04       CMP #&04
2fa3   90 14       BCC  20       2fb9
2fa5   c9 2d       CMP #&2d
2fa7   90 1b       BCC  27       2fc4
2fa9   c9 34       CMP #&34
2fab   90 0c       BCC  12       2fb9
2fad   c9 55       CMP #&55
2faf   90 21       BCC  33       2fd2
2fb1   c9 6c       CMP #&6c
2fb3   90 04       BCC   4       2fb9
2fb5   c9 94       CMP #&94
2fb7   90 27       BCC  39       2fe0
2fb9   a5 86       LDA &86
2fbb   c9 b4       CMP #&b4
2fbd   b0 01       BCS   1       2fc0
2fbf   60          RTS 
2fc0   a9 b4       LDA #&b4
2fc2   d0 28       BNE  40       2fec
2fc4   a5 86       LDA &86
2fc6   c9 34       CMP #&34
2fc8   90 ef       BCC -17       2fb9
2fca   c9 41       CMP #&41
2fcc   b0 eb       BCS -21       2fb9
2fce   a9 34       LDA #&34
2fd0   d0 1a       BNE  26       2fec
2fd2   a5 86       LDA &86
2fd4   c9 5c       CMP #&5c
2fd6   90 e1       BCC -31       2fb9
2fd8   c9 69       CMP #&69
2fda   b0 dd       BCS -35       2fb9
2fdc   a9 5c       LDA #&5c
2fde   d0 0c       BNE  12       2fec
2fe0   a5 86       LDA &86
2fe2   c9 24       CMP #&24
2fe4   90 d3       BCC -45       2fb9
2fe6   c9 31       CMP #&31
2fe8   b0 cf       BCS -49       2fb9
2fea   a9 24       LDA #&24
2fec   85 7f       STA &7f
2fee   85 51       STA &51
2ff0   20 24 2e    JSR &2e24
2ff3   a5 53       LDA &53
2ff5   85 80       STA &80
2ff7   a5 54       LDA &54
2ff9   85 81       STA &81
2ffb   a9 7f       LDA #&7f
2ffd   85 7c       STA &7c
2fff   60          RTS 
3000   a5 60       LDA &60
3002   29 07       AND &07
3004   85 60       STA &60
3006   4c d3 1d    JMP &1dd3
3009   ea          NOP 
300a   a9 b6       LDA #&b6
300c   aa          TAX 
300d   a8          TAY 
300e   a9 81       LDA #&81
3010   20 f4 ff    JSR &fff4                    ; Keyboard
3013   8a          TXA 
3014   60          RTS 
3015   a9 2f       LDA #&2f
3017   8d 0e 02    STA &020e
301a   a9 17       LDA #&17
301c   8d 0f 02    STA &020f
301f   a9 00       LDA #&00
3021   20 f1 ff    JSR &fff1
3024   a9 a4       LDA #&a4
3026   8d 0e 02    STA &020e
3029   a9 e0       LDA #&e0
302b   8d 0f 02    STA &020f
302e   60          RTS 
302f   c9 20       CMP #&20
3031   90 03       BCC   3       3036
3033   4c a4 e0    JMP &e0a4
3036   48          PHA 
3037   a9 07       LDA #&07
3039   20 a4 e0    JSR &e0a4
303c   68          PLA 
303d   60          RTS 
303e   20 0a 17    JSR &170a
3041   d0 fb       BNE  -5       303e
3043   a9 0f       LDA #&0f
3045   a2 00       LDX #&00
3047   a0 00       LDY #&00
3049   20 f4 ff    JSR &fff4
304c   a2 60       LDX #&60
304e   a0 25       LDY #&25
3050   4c 15 17    JMP &1715
3053   85 61       STA &61
3055   b5 00       LDA &00,X
3057   8d 6d 2b    STA &2b6d
305a   60          RTS 
305b   20 d0 04    JSR &04d0
305e   a9 0f       LDA #&0f
3060   a2 00       LDX #&00
3062   4c f4 ff    JMP &fff4
3065   17          ???
3066   a9 0f       LDA #&0f
3068   20 f4 ff    JSR &fff4                    ; OSBYTE 15, flush buffers
306b   4c e2 14    JMP &14e2
306e   20 2c 18    JSR &182c
3071   a9 05       LDA #&05
3073   85 67       STA &67
3075   a2 00       LDX #&00
3077   20 4a 18    JSR &184a
307a   a9 05       LDA #&05                     ; Number of lives, player 1
307c   85 88       STA &88
307e   a9 00       LDA #&00
3080   85 89       STA &89
3082   a5 20       LDA &20                      ; Read number of players flag
3084   f0 09       BEQ   9       308f           ; If single player, jump to 308f
3086   a2 28       LDX #&28
3088   20 4a 18    JSR &184a
308b   a9 05       LDA #&05                     ; Number of lives, player 2
308d   85 89       STA &89
308f   a5 67       LDA &67
3091   29 01       AND &01
3093   49 01       EOR #&01
3095   aa          TAX 
3096   b5 88       LDA &88,X
3098   f0 06       BEQ   6       30a0
309a   a5 67       LDA &67
309c   49 07       EOR #&07
309e   85 67       STA &67
30a0   a5 67       LDA &67
30a2   48          PHA 
30a3   29 01       AND &01
30a5   20 58 18    JSR &1858
30a8   bd b0 06    LDA &06b0,X
30ab   99 60 00    STA &0060,Y
30ae   e8          INX 
30af   c8          INY 
30b0   c0 23       CPY #&23
30b2   90 f4       BCC -12       30a8
30b4   68          PLA 
30b5   85 67       STA &67
30b7   a9 00       LDA #&00
30b9   85 92       STA &92
30bb   20 4a 11    JSR &114a
30be   20 b4 14    JSR &14b4
30c1   20 cb 19    JSR &19cb
30c4   a5 67       LDA &67
30c6   29 01       AND &01
30c8   aa          TAX 
30c9   f8          SED 
30ca   b5 88       LDA &88,X
30cc   38          SEC 
30cd   e9 01       SBC #&01
30cf   95 88       STA &88,X
30d1   d8          CLD 
30d2   a5 7d       LDA &7d
30d4   c9 07       CMP #&07
30d6   d0 08       BNE   8       30e0
30d8   a5 7c       LDA &7c
30da   30 4a       BMI  74       3126
30dc   a9 08       LDA #&08
30de   85 7d       STA &7d
30e0   20 37 1e    JSR &1e37
30e3   20 19 20    JSR &2019
30e6   a9 01       LDA #&01
30e8   85 75       STA &75
30ea   a9 00       LDA #&00
30ec   85 79       STA &79
30ee   ea          NOP 
30ef   20 ea 14    JSR &14ea
30f2   20 31 1a    JSR &1a31
30f5   20 f2 18    JSR &18f2
30f8   a5 67       LDA &67
30fa   29 01       AND &01
30fc   aa          TAX 
30fd   b5 88       LDA &88,X
30ff   f0 16       BEQ  22       3117
3101   a5 67       LDA &67
3103   29 01       AND &01
3105   20 58 18    JSR &1858
3108   b9 60 00    LDA &0060,Y
310b   9d b0 06    STA &06b0,X
310e   e8          INX 
310f   c8          INY 
3110   c0 23       CPY #&23
3112   90 f4       BCC -12       3108
3114   4c 8f 17    JMP &178f
3117   20 66 17    JSR &1766
311a   a5 88       LDA &88
311c   d0 05       BNE   5       3123
311e   a5 89       LDA &89
3120   d0 01       BNE   1       3123
3122   60          RTS 
3123   4c 8f 17    JMP &178f
3126   a9 ff       LDA #&ff
3128   85 7c       STA &7c
312a   d0 b4       BNE -76       30e0
312c   a9 2e       LDA #&2e
312e   85 57       STA &57
3130   a9 c0       LDA #&c0
3132   85 56       STA &56
3134   a9 00       LDA #&00
3136   a2 8a       LDX #&8a
3138   95 00       STA &00,X
313a   e8          INX 
313b   e0 99       CPX #&99
313d   90 f9       BCC  -7       3138
313f   a2 b0       LDX #&b0
3141   a9 00       LDA #&00
3143   9d 00 06    STA &0600,X
3146   e8          INX 
3147   d0 fa       BNE  -6       3143
3149   60          RTS 
314a   a9 00       LDA #&00
314c   9d b0 06    STA &06b0,X
314f   9d d2 06    STA &06d2,X
3152   a9 08       LDA #&08
3154   9d cd 06    STA &06cd,X
3157   60          RTS 
3158   0a          ASL A
3159   0a          ASL A
315a   0a          ASL A
315b   85 50       STA &50
315d   0a          ASL A
315e   0a          ASL A
315f   65 50       ADC &50
3161   aa          TAX 
3162   a0 00       LDY #&00
3164   60          RTS 
3165   a5 92       LDA &92
3167   d0 03       BNE   3       316c
3169   4c a8 21    JMP &21a8
316c   60          RTS 
316d   a5 7c       LDA &7c
316f   c9 80       CMP #&80
3171   d0 19       BNE  25       318c
3173   20 74 22    JSR &2274
3176   a9 00       LDA #&00
3178   85 7c       STA &7c
317a   4c 8c 18    JMP &188c
317d   20 c4 23    JSR &23c4
3180   20 40 29    JSR &2940
3183   20 22 28    JSR &2822
3186   20 c4 23    JSR &23c4
3189   4c 84 20    JMP &2084
318c   a9 c8       LDA #&c8
318e   8d 24 29    STA &2924
3191   20 e6 21    JSR &21e6
3194   20 34 1d    JSR &1d34
3197   a2 20       LDX #&20
3199   20 fc 2a    JSR &2afc
319c   a2 18       LDX #&18
319e   a0 14       LDY #&14
31a0   a9 07       LDA #&07
31a2   20 f1 ff    JSR &fff1
31a5   ad 24 29    LDA &2924
31a8   38          SEC 
31a9   e9 0a       SBC #&0a
31ab   8d 24 29    STA &2924
31ae   20 da 18    JSR &18da
31b1   20 34 1d    JSR &1d34
31b4   a5 75       LDA &75
31b6   e6 75       INC &75
31b8   a5 75       LDA &75
31ba   c9 08       CMP #&08
31bc   90 d3       BCC -45       3191
31be   a9 50       LDA #&50
31c0   85 75       STA &75
31c2   20 74 22    JSR &2274
31c5   a0 28       LDY #&28
31c7   a2 00       LDX #&00
31c9   ca          DEX 
31ca   d0 fd       BNE  -3       31c9
31cc   88          DEY 
31cd   d0 f8       BNE  -8       31c7
31cf   4c 88 01    JMP &0188
31d2   20 da 18    JSR &18da
31d5   e6 75       INC &75
31d7   10 ec       BPL -20       31c5
31d9   60          RTS 
31da   20 74 22    JSR &2274
31dd   20 c4 23    JSR &23c4
31e0   20 40 29    JSR &2940
31e3   20 22 28    JSR &2822
31e6   4c c4 23    JMP &23c4
31e9   20 c4 23    JSR &23c4
31ec   4c 00 15    JMP &1500
31ef   20 ea 14    JSR &14ea
31f2   20 6b 19    JSR &196b
31f5   20 e6 21    JSR &21e6
31f8   a9 87       LDA #&87
31fa   85 56       STA &56
31fc   a9 1d       LDA #&1d
31fe   85 57       STA &57
3200   20 d0 27    JSR &27d0
3203   20 70 25    JSR &2570
3206   a9 c0       LDA #&c0
3208   85 56       STA &56
320a   a9 2e       LDA #&2e
320c   85 57       STA &57
320e   a5 99       LDA &99
3210   d0 3a       BNE  58       324c
3212   a5 92       LDA &92
3214   d0 33       BNE  51       3249
3216   20 62 26    JSR &2662
3219   20 48 23    JSR &2348
321c   20 fb 25    JSR &25fb
321f   20 7b 27    JSR &277b
3222   20 d0 27    JSR &27d0
3225   20 70 25    JSR &2570
3228   20 74 22    JSR &2274
322b   20 00 15    JSR &1500
322e   20 c4 23    JSR &23c4
3231   20 64 2b    JSR &2b64
3234   20 40 29    JSR &2940
3237   20 af 25    JSR &25af
323a   20 22 28    JSR &2822
323d   20 af 25    JSR &25af
3240   20 00 15    JSR &1500
3243   20 c4 23    JSR &23c4
3246   4c f2 18    JMP &18f2
3249   4c 6d 18    JMP &186d
324c   20 e4 19    JSR &19e4
324f   20 4a 11    JSR &114a
3252   20 b4 14    JSR &14b4
3255   20 cb 19    JSR &19cb
3258   20 5c 1d    JSR &1d5c
325b   20 31 1a    JSR &1a31
325e   a2 01       LDX #&01
3260   86 75       STX &75
3262   ca          DEX 
3263   86 99       STX &99
3265   86 92       STX &92
3267   86 79       STX &79
3269   f0 84       BEQ 124       31ef
326b   a9 ab       LDA #&ab
326d   20 0c 17    JSR &170c
3270   f0 07       BEQ   7       3279
3272   a9 ae       LDA #&ae
3274   20 68 1d    JSR &1d68
3277   f0 f9       BEQ  -7       3272
3279   60          RTS 
327a   20 ee ff    JSR &ffee
327d   a9 11       LDA #&11
327f   20 ee ff    JSR &ffee
3282   a9 01       LDA #&01
3284   4c ee ff    JMP &ffee
3287   ea          NOP 
3288   a9 00       LDA #&00
328a   85 83       STA &83
328c   85 7d       STA &7d
328e   a5 5d       LDA &5d
3290   c9 a0       CMP #&a0
3292   90 0f       BCC  15       32a3
3294   a5 5c       LDA &5c
3296   c9 5a       CMP #&5a
3298   90 09       BCC   9       32a3
329a   c9 67       CMP #&67
329c   b0 05       BCS   5       32a3
329e   4c 25 1a    JMP &1a25
32a1   ea          NOP 
32a2   60          RTS 
32a3   a2 f8       LDX #&f8
32a5   a0 ff       LDY #&ff
32a7   a9 80       LDA #&80
32a9   20 f4 ff    JSR &fff4
32ac   8a          TXA 
32ad   f0 f3       BEQ -13       32a2
32af   e6 98       INC &98
32b1   a5 98       LDA &98
32b3   c9 06       CMP #&06
32b5   90 04       BCC   4       32bb
32b7   a9 00       LDA #&00
32b9   85 98       STA &98
32bb   a6 98       LDX &98
32bd   bd 10 14    LDA &1410,X
32c0   8d 1c 29    STA &291c
32c3   a2 18       LDX #&18
32c5   4c fc 2a    JMP &2afc
32c8   4c fc 2a    JMP &2afc
32cb   a5 67       LDA &67
32cd   48          PHA 
32ce   a9 02       LDA #&02
32d0   85 67       STA &67
32d2   a2 00       LDX #&00
32d4   20 da 2d    JSR &2dda
32d7   a9 05       LDA #&05
32d9   85 67       STA &67
32db   a2 03       LDX #&03
32dd   20 da 2d    JSR &2dda
32e0   68          PLA 
32e1   85 67       STA &67
32e3   60          RTS 
32e4   a9 80       LDA #&80
32e6   85 87       STA &87
32e8   20 84 20    JSR &2084
32eb   20 7d 18    JSR &187d
32ee   20 e4 11    JSR &11e4
32f1   c6 87       DEC &87
32f3   a5 87       LDA &87
32f5   49 ff       EOR #&ff
32f7   8d 24 21    STA &2124
32fa   a2 20       LDX #&20
32fc   20 11 21    JSR &2111
32ff   a2 18       LDX #&18
3301   20 11 21    JSR &2111
3304   20 84 20    JSR &2084
3307   20 5e 11    JSR &115e
330a   a9 05       LDA #&05
330c   20 10 0b    JSR &0b10
330f   a5 87       LDA &87
3311   c9 06       CMP #&06
3313   b0 d6       BCS -42       32eb
3315   60          RTS 
3316   a5 60       LDA &60
3318   c9 06       CMP #&06
331a   d0 03       BNE   3       331f
331c   4c c1 2a    JMP &2ac1
331f   20 14 2e    JSR &2e14
3322   4c 95 2a    JMP &2a95
3325   a5 92       LDA &92
3327   49 ff       EOR #&ff
3329   85 99       STA &99
332b   f0 01       BEQ   1       332e
332d   60          RTS 
332e   4c a3 19    JMP &19a3
3331   20 92 1a    JSR &1a92
3334   a9 54       LDA #&54
3336   85 3f       STA &3f
3338   a9 40       LDA #&40
333a   20 ed 1a    JSR &1aed
333d   a9 61       LDA #&61
333f   85 3f       STA &3f
3341   a9 80       LDA #&80
3343   85 3e       STA &3e
3345   a9 00       LDA #&00
3347   20 d1 1a    JSR &1ad1
334a   a9 20       LDA #&20
334c   20 d1 1a    JSR &1ad1
334f   a9 40       LDA #&40
3351   20 d1 1a    JSR &1ad1
3354   a9 50       LDA #&50
3356   85 3f       STA &3f
3358   a9 e0       LDA #&e0
335a   20 ed 1a    JSR &1aed
335d   a9 1f       LDA #&1f
335f   20 ee ff    JSR &ffee
3362   a9 07       LDA #&07
3364   20 ee ff    JSR &ffee
3367   a9 00       LDA #&00
3369   20 ee ff    JSR &ffee
336c   a9 11       LDA #&11
336e   20 ee ff    JSR &ffee
3371   a9 0e       LDA #&0e
3373   20 ee ff    JSR &ffee                    ; &1a78 when loaded
3376   a9 86       LDA #&86                     ; Colour 8 to 1 (6 eor 7)
3378   8d 21 fe    STA &fe21                    ; ULA palette
337b   a9 91       LDA #&91                     ; Colour 9 to 6 (1 eor 7)
337d   8d 21 fe    STA &fe21                    ; ULA palette
3380   a5 88       LDA &88
3382   20 03 1b    JSR &1b03
3385   a9 20       LDA #&20
3387   20 ee ff    JSR &ffee
338a   20 ee ff    JSR &ffee
338d   a5 89       LDA &89
338f   4c 03 1b    JMP &1b03
3392   a9 7c       LDA #&7c
3394   85 3f       STA &3f
3396   a9 00       LDA #&00
3398   20 a4 1a    JSR &1aa4
339b   a9 42       LDA #&42
339d   85 3f       STA &3f
339f   a9 80       LDA #&80
33a1   4c a4 1a    JMP &1aa4
33a4   85 3e       STA &3e
33a6   a2 50       LDX #&50
33a8   a0 00       LDY #&00
33aa   a9 f3       LDA #&f3
33ac   91 3e c8    STA (&c83e,Y)
33af   a9 fc       LDA #&fc
33b1   91 3e c8    STA (&c83e,Y)
33b4   91 3e c8    STA (&c83e,Y)
33b7   91 3e c8    STA (&c83e,Y)
33ba   a9 a8       LDA #&a8
33bc   91 3e ca    STA (&ca3e,Y)
33bf   f0 0f       BEQ  15       33d0
33c1   a5 3e       LDA &3e
33c3   18          CLC 
33c4   69 08       ADC #&08
33c6   85 3e       STA &3e
33c8   a5 3f       LDA &3f
33ca   69 00       ADC #&00
33cc   85 3f       STA &3f
33ce   d0 d8       BNE -40       33a8
33d0   60          RTS 
33d1   8d d7 1a    STA &1ad7
33d4   a0 00       LDY #&00
33d6   b9 40 25    LDA &2540,Y
33d9   91 3e c8    STA (&c83e,Y)
33dc   c0 20       CPY #&20
33de   90 f6       BCC -10       33d6
33e0   a5 3e       LDA &3e
33e2   69 1f       ADC #&1f
33e4   85 3e       STA &3e
33e6   a5 3f       LDA &3f
33e8   69 00       ADC #&00
33ea   85 3f       STA &3f
33ec   60          RTS 
33ed   85 3e       STA &3e
33ef   a9 00       LDA #&00
33f1   20 d1 1a    JSR &1ad1
33f4   a9 20       LDA #&20
33f6   20 d1 1a    JSR &1ad1
33f9   a9 20       LDA #&20
33fb   20 d1 1a    JSR &1ad1
33fe   a9 40       LDA #&40
3400   4c d1 1a    JMP &1ad1
3403   85 3e       STA &3e
3405   4a          LSR A
3406   4a          LSR A
3407   4a          LSR A
3408   4a          LSR A
3409   18          CLC 
340a   69 30       ADC #&30
340c   20 ee ff    JSR &ffee
340f   a5 3e       LDA &3e
3411   29 0f       AND &0f
3413   69 30       ADC #&30
3415   4c ee ff    JMP &ffee
3418   ea          NOP 
3419   ea          NOP 
341a   bd 00 05    LDA &0500,X
341d   4a          LSR A
341e   4a          LSR A
341f   4a          LSR A
3420   4a          LSR A
3421   18          CLC 
3422   69 30       ADC #&30
3424   20 ee ff    JSR &ffee
3427   bd 00 05    LDA &0500,X
342a   29 0f       AND &0f
342c   18          CLC 
342d   69 30       ADC #&30
342f   4c ee ff    JMP &ffee
3432   a2 00       LDX #&00
3434   bd fe 12    LDA &12fe,X
3437   c9 0d       CMP #&0d
3439   f0 06       BEQ   6       3441
343b   20 ee ff    JSR &ffee
343e   e8          INX 
343f   d0 f3       BNE -13       3434
3441   a9 0a       LDA #&0a
3443   8d 00 fe    STA &fe00
3446   a9 20       LDA #&20
3448   8d 01 fe    STA &fe01
344b   a9 05       LDA #&05
344d   85 2e       STA &2e
344f   a2 00       LDX #&00
3451   86 2f       STX &2f
3453   a9 31       LDA #&31
3455   85 30       STA &30
3457   a9 1f       LDA #&1f
3459   20 ee ff    JSR &ffee
345c   a9 00       LDA #&00
345e   20 ee ff    JSR &ffee
3461   a5 2e       LDA &2e
3463   20 ee ff    JSR &ffee
3466   a5 30       LDA &30
3468   20 ee ff    JSR &ffee
346b   a9 2e       LDA #&2e
346d   20 ee ff    JSR &ffee
3470   20 ee ff    JSR &ffee
3473   20 1a 1b    JSR &1b1a
3476   e8          INX 
3477   20 1a 1b    JSR &1b1a
347a   e8          INX 
347b   20 1a 1b    JSR &1b1a
347e   e8          INX 
347f   a9 20       LDA #&20
3481   20 ee ff    JSR &ffee
3484   20 ee ff    JSR &ffee
3487   bd 00 05    LDA &0500,X
348a   c9 0d       CMP #&0d
348c   f0 06       BEQ   6       3494
348e   20 ee ff    JSR &ffee
3491   e8          INX 
3492   d0 f3       BNE -13       3487
3494   a5 2f       LDA &2f
3496   18          CLC 
3497   69 20       ADC #&20
3499   85 2f       STA &2f
349b   aa          TAX 
349c   e6 2e       INC &2e
349e   e6 2e       INC &2e
34a0   e6 30       INC &30
34a2   a5 30       LDA &30
34a4   c9 39       CMP #&39
34a6   90 af       BCC -81       3457
34a8   60          RTS 
34a9   85 25       STA &25
34ab   a5 60       LDA &60
34ad   c9 04       CMP #&04
34af   d0 0c       BNE  12       34bd
34b1   a5 25       LDA &25
34b3   30 04       BMI   4       34b9
34b5   a9 00       LDA #&00
34b7   10 06       BPL   6       34bf
34b9   a9 ff       LDA #&ff
34bb   30 02       BMI   2       34bf
34bd   a5 25       LDA &25
34bf   9d 50 06    STA &0650,X
34c2   4c c3 2b    JMP &2bc3
34c5   bd 00 10    LDA &1000,X
34c8   9d 00 7d    STA &7d00,X
34cb   bd 00 11    LDA &1100,X
34ce   9d 00 7e    STA &7e00,X
34d1   bd c0 11    LDA &11c0,X
34d4   9d c0 7e    STA &7ec0,X
34d7   e8          INX 
34d8   d0 e5       BNE -27       34bf
34da   60          RTS 
34db   a6 67       LDX &67
34dd   b5 8a       LDA &8a,X
34df   85 40       STA &40
34e1   b5 89       LDA &89,X
34e3   85 3f       STA &3f
34e5   b5 88       LDA &88,X
34e7   85 3e       STA &3e
34e9   a0 00       LDY #&00
34eb   a5 3e       LDA &3e
34ed   d9 00 05    CMP &0500,Y
34f0   90 12       BCC  18       3504
34f2   d0 79       BNE 121       356d
34f4   a5 3f       LDA &3f
34f6   d9 01 05    CMP &0501,Y
34f9   90 09       BCC   9       3504
34fb   d0 70       BNE 112       356d
34fd   a5 40       LDA &40
34ff   d9 02 05    CMP &0502,Y
3502   b0 69       BCS 105       356d
3504   98          TYA 
3505   69 20       ADC #&20
3507   a8          TAY 
3508   d0 e1       BNE -31       34eb
350a   a9 16       LDA #&16
350c   20 ee ff    JSR &ffee
350f   a9 07       LDA #&07
3511   20 ee ff    JSR &ffee                    ; Mode 7 for game over display
3514   a9 0a       LDA #&0a
3516   8d 00 fe    STA &fe00
3519   a9 20       LDA #&20
351b   8d 01 fe    STA &fe01
351e   a5 67       LDA &67
3520   29 01       AND &01
3522   69 31       ADC #&31
3524   a8          TAY 
3525   a9 00       LDA #&00
3527   85 2e       STA &2e
3529   a2 88       LDX #&88
352b   a9 1f       LDA #&1f
352d   20 ee ff    JSR &ffee
3530   a9 08       LDA #&08
3532   20 ee ff    JSR &ffee
3535   a5 2e       LDA &2e
3537   20 ee ff    JSR &ffee
353a   4a          LSR A
353b   29 03       AND &03
353d   18          CLC 
353e   69 81       ADC #&81
3540   20 ee ff    JSR &ffee
3543   bd 00 13    LDA &1300,X
3546   c9 0d       CMP #&0d
3548   f0 06       BEQ   6       3550
354a   20 ee ff    JSR &ffee
354d   e8          INX 
354e   d0 f3       BNE -13       3543
3550   98          TYA 
3551   20 ee ff    JSR &ffee
3554   e6 2e       INC &2e
3556   a5 2e       LDA &2e
3558   c9 18       CMP #&18
355a   90 cd       BCC -51       3529
355c   a2 00       LDX #&00
355e   a0 00       LDY #&00
3560   88          DEY 
3561   d0 fd       BNE  -3       3560
3563   ca          DEX 
3564   d0 f8       BNE  -8       355e
3566   c6 2e       DEC &2e
3568   c6 2e       DEC &2e
356a   d0 f0       BNE -16       355c
356c   60          RTS 
356d   98          TYA 
356e   c0 e0       CPY #&e0
3570   f0 18       BEQ  24       358a
3572   a2 00       LDX #&00
3574   bd 00 05    LDA &0500,X
3577   9d 00 40    STA &4000,X
357a   e8          INX 
357b   d0 f7       BNE  -9       3574
357d   98          TYA 
357e   69 20       ADC #&20
3580   aa          TAX 
3581   bd e0 3f    LDA &3fe0,X
3584   9d 00 05    STA &0500,X
3587   e8          INX 
3588   d0 f7       BNE  -9       3581
358a   a5 40       LDA &40
358c   99 02 05    STA &0502,Y
358f   a5 3f       LDA &3f
3591   99 01 05    STA &0501,Y
3594   a5 3e       LDA &3e
3596   99 00 05    STA &0500,Y
3599   20 ca 1c    JSR &1cca
359c   a2 00       LDX #&00
359e   20 07 1d    JSR &1d07
35a1   a5 67       LDA &67
35a3   29 01       AND &01
35a5   18          CLC 
35a6   69 31       ADC #&31
35a8   20 ee ff    JSR &ffee
35ab   e8          INX 
35ac   20 07 1d    JSR &1d07
35af   98          TYA 
35b0   48          PHA 
35b1   18          CLC 
35b2   69 03       ADC #&03
35b4   8d 60 25    STA &2560
35b7   a9 00       LDA #&00
35b9   a2 60       LDX #&60
35bb   a0 25       LDY #&25
35bd   20 3e 17    JSR &173e
35c0   68          PLA 
35c1   60          RTS 
35c2   ea          NOP 
35c3   ea          NOP 
35c4   ea          NOP 
35c5   ea          NOP 
35c6   ea          NOP 
35c7   60          RTS 
35c8   05 60       ORA &60
35ca   a2 00       LDX #&00
35cc   bd 9b 13    LDA &139b,X
35cf   c9 0d       CMP #&0d
35d1   f0 1f       BEQ  31       35f2
35d3   20 ee ff    JSR &ffee
35d6   e0 05       CPX #&05
35d8   90 15       BCC  21       35ef
35da   a9 0a       LDA #&0a
35dc   20 ee ff    JSR &ffee
35df   a9 08       LDA #&08
35e1   20 ee ff    JSR &ffee
35e4   bd 9b 13    LDA &139b,X
35e7   20 ee ff    JSR &ffee
35ea   a9 0b       LDA #&0b
35ec   20 ee ff    JSR &ffee
35ef   e8          INX 
35f0   d0 da       BNE -38       35cc
35f2   20 15 1d    JSR &1d15
35f5   a9 1f       LDA #&1f
35f7   20 ee ff    JSR &ffee
35fa   a9 1d       LDA #&1d
35fc   20 ee ff    JSR &ffee
35ff   a9 09       LDA #&09
3601   20 ee ff    JSR &ffee
3604   4c 15 1d    JMP &1d15
3607   bd ba 13    LDA &13ba,X
360a   c9 0d       CMP #&0d
360c   f0 06       BEQ   6       3614
360e   20 ee ff    JSR &ffee
3611   e8          INX 
3612   d0 f3       BNE -13       3607
3614   60          RTS 
3615   98          TYA 
3616   4a          LSR A
3617   4a          LSR A
3618   4a          LSR A
3619   aa          TAX 
361a   bd ed 13    LDA &13ed,X
361d   20 ee ff    JSR &ffee
3620   bd ee 13    LDA &13ee,X
3623   20 ee ff    JSR &ffee
3626   bd ef 13    LDA &13ef,X
3629   20 ee ff    JSR &ffee
362c   bd f0 13    LDA &13f0,X
362f   4c ee ff    JMP &ffee
3632   a5 00       LDA &00
3634   a6 75       LDX &75
3636   a5 5d       LDA &5d
3638   29 07       AND &07
363a   85 52       STA &52
363c   a5 5c       LDA &5c
363e   85 50       STA &50
3640   a5 71       LDA &71
3642   85 53       STA &53
3644   a5 72       LDA &72
3646   85 54       STA &54
3648   bc 1a 28    LDY &281a,X
364b   bd 12 28    LDA &2812,X
364e   aa          TAX 
364f   a9 7f       LDA #&7f
3651   4c a7 08    JMP &08a7
3654   a9 00       LDA #&00
3656   20 10 0b    JSR &0b10
3659   4c 10 0b    JMP &0b10
365c   a6 67       LDX &67
365e   f8          SED 
365f   18          CLC 
3660   a9 12       LDA #&12
3662   20 cb 2d    JSR &2dcb
3665   4c fd 1f    JMP &1ffd
3668   48          PHA 
3669   20 80 08    JSR &0880
366c   68          PLA 
366d   4c 0c 17    JMP &170c
3670   ea          NOP 
3671   ea          NOP 
3672   ea          NOP 
3673   ea          NOP 
3674   ea          NOP 
3675   ea          NOP 
3676   ea          NOP 
3677   ea          NOP 
3678   8a          TXA 
3679   29 07       AND &07
367b   f0 13       BEQ  19       3690
367d   49 07       EOR #&07
367f   f0 0f       BEQ  15       3690
3681   a9 ff       LDA #&ff
3683   85 92       STA &92
3685   d0 09       BNE   9       3690
3687   c9 40       CMP #&40
3689   90 05       BCC   5       3690
368b   29 30       AND &30
368d   18          CLC 
368e   f0 e8       BEQ -24       3678
3690   4c c0 2e    JMP &2ec0
3693   ea          NOP 
3694   c9 ff       CMP #&ff
3696   f0 03       BEQ   3       369b
3698   4c 49 22    JMP &2249
369b   a5 7d       LDA &7d
369d   f0 04       BEQ   4       36a3
369f   c9 07       CMP #&07
36a1   d0 04       BNE   4       36a7
36a3   a9 00       LDA #&00
36a5   85 83       STA &83
36a7   4c a1 22    JMP &22a1
36aa   c9 06       CMP #&06
36ac   f0 03       BEQ   3       36b1
36ae   4c 88 19    JMP &1988
36b1   a9 7f       LDA #&7f
36b3   85 7c       STA &7c
36b5   a9 18       LDA #&18
36b7   85 7e       STA &7e
36b9   85 50       STA &50
36bb   a9 34       LDA #&34
36bd   85 7f       STA &7f
36bf   85 51       STA &51
36c1   20 24 2e    JSR &2e24
36c4   a5 53       LDA &53
36c6   85 80       STA &80
36c8   a5 54       LDA &54
36ca   85 81       STA &81
36cc   60          RTS 
36cd   18          CLC 
36ce   4c c0 2e    JMP &2ec0
36d1   81 60 a5    STA &a560
36d4   67          ???
36d5   29 01       AND &01
36d7   aa          TAX 
36d8   f8          SED 
36d9   b5 88       LDA &88,X
36db   18          CLC 
36dc   69 01       ADC #&01
36de   d8          CLD 
36df   95 88       STA &88,X
36e1   e6 82       INC &82
36e3   a5 82       LDA &82
36e5   c9 05       CMP #&05
36e7   90 06       BCC   6       36ef
36e9   a9 00       LDA #&00
36eb   85 82       STA &82
36ed   85 82       STA &82
36ef   a9 08       LDA #&08
36f1   85 7d       STA &7d
36f3   20 37 1e    JSR &1e37
36f6   20 19 20    JSR &2019
36f9   a9 01       LDA #&01
36fb   85 75       STA &75
36fd   60          RTS 
36fe   85 7f       STA &7f
3700   85 51       STA &51
3702   a5 7e       LDA &7e
3704   85 50       STA &50
3706   20 24 2e    JSR &2e24
3709   a5 53       LDA &53
370b   85 80       STA &80
370d   a5 54       LDA &54
370f   85 81       STA &81
3711   4c e0 22    JMP &22e0
3714   85 90       STA &90
3716   a2 00       LDX #&00
3718   86 91       STX &91
371a   a6 91       LDX &91
371c   e4 90       CPX &90
371e   b0 04       BCS   4       3724
3720   a9 f0       LDA #&f0
3722   d0 02       BNE   2       3726
3724   a9 e0       LDA #&e0
3726   20 78 21    JSR &2178
3729   a6 91       LDX &91
372b   20 4d 21    JSR &214d
372e   e6 91       INC &91
3730   a6 91       LDX &91
3732   e0 06       CPX #&06
3734   90 e4       BCC -28       371a
3736   60          RTS 
3737   a6 7d       LDX &7d
3739   e0 06       CPX #&06
373b   b0 22       BCS  34       375f
373d   a5 7c       LDA &7c
373f   c9 c0       CMP #&c0
3741   b0 11       BCS  17       3754
3743   a9 00       LDA #&00
3745   85 7c       STA &7c
3747   a5 7f       LDA &7f
3749   20 fe 1d    JSR &1dfe
374c   a5 7d       LDA &7d
374e   18          CLC 
374f   69 01       ADC #&01
3751   4c 14 1e    JMP &1e14
3754   a9 ff       LDA #&ff
3756   85 7c       STA &7c
3758   4a          LSR A
3759   85 83       STA &83
375b   8a          TXA 
375c   4c 14 1e    JMP &1e14
375f   d0 23       BNE  35       3784
3761   a5 7c       LDA &7c
3763   c9 a0       CMP #&a0
3765   b0 ed       BCS -19       3754
3767   20 26 1f    JSR &1f26
376a   a5 7c       LDA &7c
376c   c9 80       CMP #&80
376e   90 08       BCC   8       3778
3770   a9 00       LDA #&00
3772   85 7c       STA &7c
3774   a9 10       LDA #&10
3776   d0 02       BNE   2       377a
3778   a5 7f       LDA &7f
377a   20 fe 1d    JSR &1dfe
377d   38          SEC 
377e   20 f4 1e    JSR &1ef4
3781   4c 38 1f    JMP &1f38
3784   e0 08       CPX #&08
3786   f0 33       BEQ  51       37bb
3788   a5 7c       LDA &7c
378a   c9 a0       CMP #&a0
378c   90 10       BCC  16       379e
378e   a9 ff       LDA #&ff
3790   85 7c       STA &7c
3792   a9 01       LDA #&01
3794   85 83       STA &83
3796   20 f4 1e    JSR &1ef4
3799   a6 7d       LDX &7d
379b   4c d1 1e    JMP &1ed1
379e   20 f4 1e    JSR &1ef4
37a1   a6 7d       LDX &7d
37a3   a5 7c       LDA &7c
37a5   c9 7f       CMP #&7f
37a7   f0 0e       BEQ  14       37b7
37a9   a9 00       LDA #&00
37ab   85 7c       STA &7c
37ad   a9 10       LDA #&10
37af   20 fe 1d    JSR &1dfe
37b2   a6 7d       LDX &7d
37b4   4c d1 1e    JMP &1ed1
37b7   a5 7f       LDA &7f
37b9   d0 f4       BNE -12       37af
37bb   20 d1 1e    JSR &1ed1
37be   18          CLC 
37bf   20 f4 1e    JSR &1ef4
37c2   a9 7f       LDA #&7f
37c4   85 7c       STA &7c
37c6   c6 7d       DEC &7d
37c8   a9 44       LDA #&44
37ca   85 7e       STA &7e
37cc   a9 5c       LDA #&5c
37ce   4c fe 1d    JMP &1dfe
37d1   8a          TXA 
37d2   48          PHA 
37d3   20 38 1f    JSR &1f38
37d6   a2 06       LDX #&06
37d8   86 7d       STX &7d
37da   20 26 1f    JSR &1f26
37dd   a5 67       LDA &67
37df   4a          LSR A
37e0   aa          TAX 
37e1   a9 18       LDA #&18
37e3   9d 98 80    STA &8098,X
37e6   85 7e       STA &7e
37e8   a9 34       LDA #&34
37ea   9d 9a 80    STA &809a,X
37ed   20 fe 1d    JSR &1dfe
37f0   68          PLA 
37f1   85 7d       STA &7d
37f3   60          RTS 
37f4   a9 80       LDA #&80
37f6   85 53       STA &53
37f8   a9 2f       LDA #&2f
37fa   85 54       STA &54
37fc   a6 82       LDX &82
37fe   bc 70 21    LDY &2170,X
3801   a2 40       LDX #&40
3803   b0 03       BCS   3       3808
3805   4c 66 1f    JMP &1f66
3808   a9 60       LDA #&60
380a   85 55       STA &55
380c   a9 f0       LDA #&f0
380e   20 59 2e    JSR &2e59
3811   a9 71       LDA #&71
3813   85 54       STA &54
3815   a9 00       LDA #&00
3817   85 53       STA &53
3819   85 52       STA &52
381b   85 50       STA &50
381d   a2 80       LDX #&80
381f   a0 2f       LDY #&2f
3821   a9 bf       LDA #&bf
3823   4c a7 08    JMP &08a7
3826   a9 40       LDA #&40
3828   85 53       STA &53
382a   a9 30       LDA #&30
382c   85 54       STA &54
382e   a6 82       LDX &82
3830   bc 70 21    LDY &2170,X
3833   a2 a0       LDX #&a0
3835   4c 66 1f    JMP &1f66
3838   a9 00       LDA #&00
383a   85 53       STA &53
383c   a9 2f       LDA #&2f
383e   85 54       STA &54
3840   a6 82       LDX &82
3842   bc 70 21    LDY &2170,X
3845   a2 00       LDX #&00
3847   a9 40       LDA #&40
3849   85 55       STA &55
384b   a9 f0       LDA #&f0
384d   20 59 2e    JSR &2e59
3850   a9 78       LDA #&78
3852   85 54       STA &54
3854   a9 80       LDA #&80
3856   85 53       STA &53
3858   a9 00       LDA #&00
385a   85 52       STA &52
385c   85 50       STA &50
385e   aa          TAX 
385f   a0 2f       LDY #&2f
3861   a9 7f       LDA #&7f
3863   4c a7 08    JMP &08a7
3866   8e 75 1f    STX &1f75
3869   8c 76 1f    STY &1f76
386c   a2 00       LDX #&00
386e   a0 00       LDY #&00
3870   a9 04       LDA #&04
3872   85 31       STA &31
3874   bd 40 3c    LDA &3c40,X
3877   85 30       STA &30
3879   86 35       STX &35
387b   29 0f       AND &0f
387d   aa          TAX 
387e   bd f0 0b    LDA &0bf0,X
3881   91 53 c8    STA (&c853,Y)
3884   a5 30       LDA &30
3886   4a          LSR A
3887   4a          LSR A
3888   4a          LSR A
3889   4a          LSR A
388a   aa          TAX 
388b   bd f0 0b    LDA &0bf0,X
388e   91 53 c8    STA (&c853,Y)
3891   a6 35       LDX &35
3893   e8          INX 
3894   c6 31       DEC &31
3896   d0 dc       BNE -36       3874
3898   e0 58       CPX #&58
389a   b0 06       BCS   6       38a2
389c   8a          TXA 
389d   69 04       ADC #&04
389f   aa          TAX 
38a0   d0 ce       BNE -50       3870
38a2   60          RTS 
38a3   a9 16       LDA #&16
38a5   20 ee ff    JSR &ffee
38a8   a9 03       LDA #&03
38aa   20 ee ff    JSR &ffee                    ; Mode 3, clears &4000 onwards
38ad   a2 f4       LDX #&f4
38af   a9 9a       LDA #&9a
38b1   20 f4 ff    JSR &fff4
38b4   a9 55       LDA #&55
38b6   8d 63 03    STA &0363
38b9   a9 aa       LDA #&aa
38bb   8d 62 03    STA &0362
38be   a9 01       LDA #&01
38c0   8d 61 03    STA &0361
38c3   a9 0f       LDA #&0f
38c5   8d 60 03    STA &0360
38c8   a9 20       LDA #&20
38ca   8d 4f 03    STA &034f
38cd   ea          NOP 
38ce   ea          NOP 
38cf   8d 0a 03    STA &030a
38d2   a9 09       LDA #&09
38d4   8d 00 fe    STA &fe00
38d7   a9 07       LDA #&07
38d9   8d 01 fe    STA &fe01
38dc   8d 00 fe    STA &fe00
38df   a9 1e       LDA #&1e
38e1   8d 01 fe    STA &fe01
38e4   a9 04       LDA #&04
38e6   8d 00 fe    STA &fe00
38e9   a9 26       LDA #&26
38eb   8d 01 fe    STA &fe01
38ee   a9 0a       LDA #&0a
38f0   8d 00 fe    STA &fe00
38f3   a9 20       LDA #&20
38f5   8d 01 fe    STA &fe01
38f8   a9 14       LDA #&14
38fa   4c 7a 19    JMP &197a
38fd   e6 60       INC &60
38ff   a5 60       LDA &60
3901   29 03       AND &03
3903   f0 11       BEQ  17       3916
3905   20 a0 20    JSR &20a0
3908   20 19 20    JSR &2019
390b   a9 ff       LDA #&ff
390d   85 7c       STA &7c
390f   85 83       STA &83
3911   a9 06       LDA #&06
3913   85 7d       STA &7d
3915   60          RTS 
3916   4c 00 17    JMP &1700
3919   a2 b0       LDX #&b0
391b   a9 ff       LDA #&ff
391d   9d ff 05    STA &05ff,X
3920   ca          DEX 
3921   d0 fa       BNE  -6       391d
3923   85 6b       STA &6b
3925   85 75       STA &75
3927   a9 00       LDA #&00
3929   85 78       STA &78
392b   85 77       STA &77
392d   85 73       STA &73
392f   85 6c       STA &6c
3931   a9 a7       LDA #&a7
3933   85 5d       STA &5d
3935   a9 46       LDA #&46
3937   85 5c       STA &5c
3939   20 48 23    JSR &2348
393c   20 d0 27    JSR &27d0
393f   20 70 25    JSR &2570
3942   a6 60       LDX &60
3944   bd e0 0a    LDA &0ae0,X
3947   85 5f       STA &5f
3949   bd e8 0a    LDA &0ae8,X
394c   85 5e       STA &5e
394e   bd f0 0a    LDA &0af0,X
3951   85 62       STA &62
3953   bd f8 0a    LDA &0af8,X
3956   4c 53 17    JMP &1753
3959   a9 60       LDA #&60
395b   85 50       STA &50
395d   a5 87       LDA &87
395f   85 51       STA &51
3961   20 24 2e    JSR &2e24
3964   a2 00       LDX #&00
3966   a0 30       LDY #&30
3968   a9 ff       LDA #&ff
396a   20 00 11    JSR &1100
396d   a9 60       LDA #&60
396f   85 50       STA &50
3971   a5 87       LDA &87
3973   18          CLC 
3974   69 20       ADC #&20
3976   85 51       STA &51
3978   20 24 2e    JSR &2e24
397b   a2 00       LDX #&00
397d   a0 2f       LDY #&2f
397f   a9 ff       LDA #&ff
3981   4c 00 11    JMP &1100
3984   a9 60       LDA #&60
3986   85 50       STA &50
3988   a5 87       LDA &87
398a   18          CLC 
398b   69 40       ADC #&40
398d   85 51       STA &51
398f   20 24 2e    JSR &2e24
3992   a5 87       LDA &87
3994   4a          LSR A
3995   a9 00       LDA #&00
3997   6a          ROR A
3998   aa          TAX 
3999   a0 35       LDY #&35
399b   a9 7f       LDA #&7f
399d   4c 00 11    JMP &1100
39a0   a2 05       LDX #&05
39a2   8a          TXA 
39a3   48          PHA 
39a4   a9 f0       LDA #&f0
39a6   20 78 21    JSR &2178
39a9   68          PLA 
39aa   aa          TAX 
39ab   ca          DEX 
39ac   10 f4       BPL -12       39a2
39ae   a9 05       LDA #&05
39b0   85 87       STA &87
39b2   20 59 20    JSR &2059
39b5   20 84 20    JSR &2084
39b8   a5 87       LDA &87
39ba   49 ff       EOR #&ff
39bc   8d 24 21    STA &2124
39bf   a2 20       LDX #&20
39c1   20 11 21    JSR &2111
39c4   a2 18       LDX #&18
39c6   20 11 21    JSR &2111
39c9   20 e4 11    JSR &11e4
39cc   a5 87       LDA &87
39ce   c9 78       CMP #&78
39d0   b0 03       BCS   3       39d5
39d2   20 84 20    JSR &2084
39d5   e6 87       INC &87
39d7   20 5e 11    JSR &115e
39da   a5 87       LDA &87
39dc   c9 78       CMP #&78
39de   b0 03       BCS   3       39e3
39e0   20 84 20    JSR &2084
39e3   a9 0f       LDA #&0f
39e5   20 10 0b    JSR &0b10
39e8   a5 87       LDA &87
39ea   c9 80       CMP #&80
39ec   90 cc       BCC -52       39ba
39ee   a9 ff       LDA #&ff
39f0   8d 24 21    STA &2124
39f3   a2 20       LDX #&20
39f5   4c 11 21    JMP &2111
39f8   e6 0c       INC &0c
39fa   a6 0c       LDX &0c
39fc   e0 06       CPX #&06
39fe   90 04       BCC   4       3a04
3a00   a2 00       LDX #&00
3a02   86 0c       STX &0c
3a04   bd 58 2b    LDA &2b58,X
3a07   60          RTS 
3a08   a9 d2       LDA #&d2
3a0a   a2 ff       LDX #&ff
3a0c   a0 00       LDY #&00
3a0e   4c f4 ff    JMP &fff4
3a11   a0 21       LDY #&21
3a13   a9 07       LDA #&07
3a15   4c f1 ff    JMP &fff1
3a18   10 00       BPL   0       3a1a
3a1a   f1 ff       SBC  -1       3a1b
3a1c   07          ???
3a1d   00          BRK   
3a1e   04          ???
3a1f   00          BRK   
3a20   11 00 00    ORA (&0000,Y)
3a23   00          BRK   
3a24   ff          ???
3a25   00          BRK   
3a26   04          ???
3a27   00          BRK   
3a28   00          BRK   
3a29   00          BRK   
3a2a   00          BRK   
3a2b   a6 7d       LDX &7d
3a2d   e0 06       CPX #&06
3a2f   90 0b       BCC  11       3a3c
3a31   a9 f0       LDA #&f0
3a33   4c 45 21    JMP &2145
3a36   e0 0a       CPX #&0a
3a38   00          BRK   
3a39   00          BRK   
3a3a   32          ???
3a3b   00          BRK   
3a3c   a6 7d       LDX &7d
3a3e   20 4d 21    JSR &214d
3a41   a9 e0       LDA #&e0
3a43   a6 7d       LDX &7d
3a45   20 78 21    JSR &2178
3a48   a6 7d       LDX &7d
3a4a   4c 4d 21    JMP &214d
3a4d   a9 00       LDA #&00
3a4f   85 50       STA &50
3a51   bd 10 23    LDA &2310,X
3a54   85 53       STA &53
3a56   bd 18 23    LDA &2318,X
3a59   85 54       STA &54
3a5b   bd 20 23    LDA &2320,X
3a5e   85 52       STA &52
3a60   bc 30 23    LDY &2330,X
3a63   bd 28 23    LDA &2328,X
3a66   85 2e       STA &2e
3a68   bd 38 23    LDA &2338,X
3a6b   a6 2e       LDX &2e
3a6d   4c a7 08    JMP &08a7
3a70   3c          ???
3a71   3d 3e 3f    AND &3f3e,X
3a74   07          ???
3a75   ea          NOP 
3a76   ea          NOP 
3a77   ea          NOP 
3a78   85 2f       STA &2f
3a7a   bd 38 23    LDA &2338,X
3a7d   18          CLC 
3a7e   69 01       ADC #&01
3a80   4a          LSR A
3a81   85 55       STA &55
3a83   bd 28 23    LDA &2328,X
3a86   85 53       STA &53
3a88   bd 30 23    LDA &2330,X
3a8b   85 54       STA &54
3a8d   bd 40 23    LDA &2340,X
3a90   85 2e       STA &2e
3a92   a6 82       LDX &82
3a94   bc 70 21    LDY &2170,X
3a97   a6 2e       LDX &2e
3a99   a5 2f       LDA &2f
3a9b   4c 59 2e    JMP &2e59
3a9e   00          BRK   
3a9f   00          BRK   
3aa0   00          BRK   
3aa1   18          CLC 
3aa2   20 30 40    JSR &4030
3aa5   48          PHA 
3aa6   78          SEI 
3aa7   88          DEY 
3aa8   a5 71       LDA &71
3aaa   18          CLC 
3aab   69 58       ADC #&58
3aad   aa          TAX 
3aae   a5 72       LDA &72
3ab0   69 02       ADC #&02
3ab2   a8          TAY 
3ab3   8a          TXA 
3ab4   38          SEC 
3ab5   e5 80       SBC &80
3ab7   98          TYA 
3ab8   e5 81       SBC &81
3aba   b0 11       BCS  17       3acd
3abc   8a          TXA 
3abd   69 50       ADC #&50
3abf   aa          TAX 
3ac0   98          TYA 
3ac1   69 00       ADC #&00
3ac3   a8          TAY 
3ac4   8a          TXA 
3ac5   38          SEC 
3ac6   e5 80       SBC &80
3ac8   98          TYA 
3ac9   e5 81       SBC &81
3acb   b0 01       BCS   1       3ace
3acd   60          RTS 
3ace   a5 7c       LDA &7c
3ad0   f0 03       BEQ   3       3ad5
3ad2   20 e0 22    JSR &22e0
3ad5   a9 80       LDA #&80
3ad7   85 7c       STA &7c
3ad9   a0 08       LDY #&08
3adb   20 bc 2d    JSR &2dbc
3ade   20 bc 2d    JSR &2dbc
3ae1   a2 30       LDX #&30
3ae3   4c fc 2a    JMP &2afc
3ae6   a5 7c       LDA &7c
3ae8   30 5c       BMI  92       3b46
3aea   d0 30       BNE  48       3b1c
3aec   20 65 18    JSR &1865
3aef   20 e0 22    JSR &22e0
3af2   a5 7c       LDA &7c
3af4   30 d7       BMI -41       3acd
3af6   a5 80       LDA &80
3af8   18          CLC 
3af9   69 d0       ADC #&d0
3afb   85 84       STA &84
3afd   a5 81       LDA &81
3aff   69 04       ADC #&04
3b01   85 85       STA &85
3b03   a5 7f       LDA &7f
3b05   85 86       STA &86
3b07   69 02       ADC #&02
3b09   85 7f       STA &7f
3b0b   85 51       STA &51
3b0d   a5 7e       LDA &7e
3b0f   85 50       STA &50
3b11   20 24 2e    JSR &2e24
3b14   a5 53       LDA &53
3b16   85 80       STA &80
3b18   a5 54       LDA &54
3b1a   85 81       STA &81
3b1c   20 65 18    JSR &1865
3b1f   a5 7c       LDA &7c
3b21   d0 aa       BNE -86       3acd
3b23   20 9d 16    JSR &169d
3b26   4c e0 22    JMP &22e0
3b29   84 c9       STY &c9
3b2b   f0 b0       BEQ -80       3add
3b2d   0a          ASL A
3b2e   98          TYA 
3b2f   69 08       ADC #&08
3b31   a8          TAY 
3b32   ca          DEX 
3b33   d0 f3       BNE -13       3b28
3b35   4c e0 22    JMP &22e0
3b38   a9 60       LDA #&60
3b3a   8d cd 1f    STA &1fcd
3b3d   20 af 1f    JSR &1faf
3b40   a9 ea       LDA #&ea
3b42   8d cd 1f    STA &1fcd
3b45   60          RTS 
3b46   4c 94 1d    JMP &1d94
3b49   20 e0 22    JSR &22e0
3b4c   a5 7c       LDA &7c
3b4e   c9 a0       CMP #&a0
3b50   90 3d       BCC  61       3b8f
3b52   a6 7d       LDX &7d
3b54   a5 7f       LDA &7f
3b56   18          CLC 
3b57   69 02       ADC #&02
3b59   dd 62 2d    CMP &2d62,X
3b5c   b0 77       BCS 119       3bd5
3b5e   85 7f       STA &7f
3b60   85 51       STA &51
3b62   a5 7e       LDA &7e
3b64   85 50       STA &50
3b66   20 24 2e    JSR &2e24
3b69   a5 53       LDA &53
3b6b   85 80       STA &80
3b6d   a5 54       LDA &54
3b6f   85 81       STA &81
3b71   4c e8 22    JMP &22e8
3b74   a5 7c       LDA &7c
3b76   c9 80       CMP #&80
3b78   d0 15       BNE  21       3b8f
3b7a   a5 5c       LDA &5c
3b7c   4a          LSR A
3b7d   4a          LSR A
3b7e   c9 18       CMP #&18
3b80   d0 0e       BNE  14       3b90
3b82   a2 28       LDX #&28
3b84   20 fc 2a    JSR &2afc
3b87   a9 c0       LDA #&c0
3b89   85 7c       STA &7c
3b8b   a9 60       LDA #&60
3b8d   d0 03       BNE   3       3b92
3b8f   60          RTS 
3b90   a5 5c       LDA &5c
3b92   85 50       STA &50
3b94   85 7e       STA &7e
3b96   a5 5d       LDA &5d
3b98   18          CLC 
3b99   69 0a       ADC #&0a
3b9b   85 7f       STA &7f
3b9d   85 51       STA &51
3b9f   d0 c5       BNE -59       3b66
3ba1   c6 83       DEC &83
3ba3   10 ea       BPL -22       3b8f
3ba5   c6 7d       DEC &7d
3ba7   a5 7d       LDA &7d
3ba9   c9 06       CMP #&06
3bab   90 03       BCC   3       3bb0
3bad   4c d2 22    JMP &22d2
3bb0   20 14 2e    JSR &2e14
3bb3   a5 58       LDA &58
3bb5   29 07       AND &07
3bb7   aa          TAX 
3bb8   bd a0 21    LDA &21a0,X
3bbb   85 7e       STA &7e
3bbd   bd fa 27    LDA &27fa,X
3bc0   85 80       STA &80
3bc2   bd 02 28    LDA &2802,X
3bc5   85 81       STA &81
3bc7   a9 00       LDA #&00
3bc9   85 7c       STA &7c
3bcb   a9 10       LDA #&10
3bcd   85 7f       STA &7f
3bcf   4c e0 22    JMP &22e0
3bd2   4c aa 1d    JMP &1daa
3bd5   a9 ff       LDA #&ff
3bd7   85 7c       STA &7c
3bd9   29 40       AND &40
3bdb   85 83       STA &83
3bdd   4c 2b 21    JMP &212b
3be0   a5 81       LDA &81
3be2   85 54       STA &54
3be4   a5 80       LDA &80
3be6   85 53       STA &53
3be8   a5 7f       LDA &7f
3bea   29 07       AND &07
3bec   85 52       STA &52
3bee   a5 7e       LDA &7e
3bf0   85 50       STA &50
3bf2   a6 7d       LDX &7d
3bf4   bc 08 23    LDY &2308,X
3bf7   bd 00 23    LDA &2300,X
3bfa   aa          TAX 
3bfb   a9 5f       LDA #&5f
3bfd   4c a7 08    JMP &08a7
3c00   80          ???
3c01   80          ???
3c02   80          ???
3c03   80          ???
3c04   80          ???
3c05   80          ???
3c06   40          RTI 
3c07   80          ???
3c08   0b          ???
3c09   0b          ???
3c0a   0b          ???
3c0b   0b          ???
3c0c   0b          ???
3c0d   0b          ???
3c0e   30 2f       BMI  47       3c3f
3c10   80          ???
3c11   80          ???
3c12   80          ???
3c13   00          BRK   
3c14   00          BRK   
3c15   80          ???
3c16   80          ???
3c17   00          BRK   
3c18   69 69       ADC #&69
3c1a   6e 71 76    ROR &7671
3c1d   78          SEI 
3c1e   69 71       ADC #&71
3c20   00          BRK   
3c21   04          ???
3c22   00          BRK   
3c23   04          ???
3c24   00          BRK   
3c25   04          ???
3c26   00          BRK   
3c27   00          BRK   
3c28   e0 80       CPX #&80
3c2a   20 c0 60    JSR &60c0
3c2d   00          BRK   
3c2e   40          RTI 
3c2f   80          ???
3c30   30 30       BMI  48       3c62
3c32   30 2f       BMI  47       3c63
3c34   2f          ???
3c35   2f          ???
3c36   30 2f       BMI  47       3c67
3c38   1f          ???
3c39   5f          ???
3c3a   5f          ???
3c3b   5f          ???
3c3c   5f          ???
3c3d   5f          ???
3c3e   bf          ???
3c3f   bf          ???
3c40   f0 c0       BEQ -64       3c02
3c42   90 60       BCC  96       3ca4
3c44   30 00       BMI   0       3c46
3c46   a0 40       LDY #&40
3c48   a5 5c       LDA &5c
3c4a   18          CLC 
3c4b   65 79       ADC &79
3c4d   c9 a0       CMP #&a0
3c4f   90 0a       BCC  10       3c5b
3c51   c9 c8       CMP #&c8
3c53   b0 04       BCS   4       3c59
3c55   e9 9f       SBC #&9f
3c57   10 02       BPL   2       3c5b
3c59   69 9f       ADC #&9f
3c5b   85 5c       STA &5c
3c5d   85 50       STA &50
3c5f   a5 6f       LDA &6f
3c61   18          CLC 
3c62   65 77       ADC &77
3c64   85 6f       STA &6f
3c66   a5 5d       LDA &5d
3c68   65 78       ADC &78
3c6a   85 5d       STA &5d
3c6c   85 51       STA &51
3c6e   20 24 2e    JSR &2e24
3c71   a5 53       LDA &53
3c73   85 71       STA &71
3c75   a5 54       LDA &54
3c77   85 72       STA &72
3c79   a5 75       LDA &75
3c7b   d0 19       BNE  25       3c96
3c7d   a5 77       LDA &77
3c7f   18          CLC 
3c80   69 90       ADC #&90
3c82   85 77       STA &77
3c84   a5 78       LDA &78
3c86   69 00       ADC #&00
3c88   30 0a       BMI  10       3c94
3c8a   c9 06       CMP #&06
3c8c   90 06       BCC   6       3c94
3c8e   a9 c0       LDA #&c0
3c90   85 77       STA &77
3c92   a9 05       LDA #&05
3c94   85 78       STA &78
3c96   a5 75       LDA &75
3c98   f0 11       BEQ  17       3cab
3c9a   a5 79       LDA &79
3c9c   f0 1e       BEQ  30       3cbc
3c9e   a5 76       LDA &76
3ca0   18          CLC 
3ca1   69 40       ADC #&40
3ca3   c9 c0       CMP #&c0
3ca5   90 13       BCC  19       3cba
3ca7   a9 00       LDA #&00
3ca9   f0 0f       BEQ  15       3cba
3cab   a5 7a       LDA &7a
3cad   f0 0b       BEQ  11       3cba
3caf   a5 76       LDA &76
3cb1   18          CLC 
3cb2   69 40       ADC #&40
3cb4   c9 c0       CMP #&c0
3cb6   90 02       BCC   2       3cba
3cb8   a9 40       LDA #&40
3cba   85 76       STA &76
3cbc   60          RTS 
3cbd   a9 00       LDA #&00
3cbf   9d 70 06    STA &0670,X
3cc2   d0 1f       BNE  31       3ce3
3cc4   a9 00       LDA #&00
3cc6   85 65       STA &65
3cc8   a2 07       LDX #&07
3cca   86 31       STX &31
3ccc   bd 70 06    LDA &0670,X
3ccf   30 3d       BMI  61       3d0e
3cd1   a9 ff       LDA #&ff
3cd3   85 65       STA &65
3cd5   bd 70 04    LDA &0470,X
3cd8   30 3b       BMI  59       3d15
3cda   20 53 16    JSR &1653
3cdd   a6 31       LDX &31
3cdf   bd 70 06    LDA &0670,X
3ce2   d0 22       BNE  34       3d06
3ce4   bd 40 04    LDA &0440,X
3ce7   18          CLC 
3ce8   69 03       ADC #&03
3cea   9d 40 04    STA &0440,X
3ced   a5 79       LDA &79
3cef   30 05       BMI   5       3cf6
3cf1   f0 03       BEQ   3       3cf6
3cf3   de 40 04    DEC &0440,Y
3cf6   bd 00 04    LDA &0400,X
3cf9   69 03       ADC #&03
3cfb   c9 50       CMP #&50
3cfd   90 02       BCC   2       3d01
3cff   e9 50       SBC #&50
3d01   20 49 24    JSR &2449
3d04   d0 05       BNE   5       3d0b
3d06   20 70 24    JSR &2470
3d09   b0 03       BCS   3       3d0e
3d0b   20 53 16    JSR &1653
3d0e   c6 31       DEC &31
3d10   a6 31       LDX &31
3d12   10 b8       BPL -72       3ccc
3d14   60          RTS 
3d15   20 1e 16    JSR &161e
3d18   a6 31       LDX &31
3d1a   bd 70 06    LDA &0670,X
3d1d   d0 20       BNE  32       3d3f
3d1f   bd 40 04    LDA &0440,X
3d22   18          CLC 
3d23   69 03       ADC #&03
3d25   9d 40 04    STA &0440,X
3d28   a5 79       LDA &79
3d2a   10 03       BPL   3       3d2f
3d2c   de 40 04    DEC &0440,Y
3d2f   bd 00 04    LDA &0400,X
3d32   e9 02       SBC #&02
3d34   c9 50       CMP #&50
3d36   90 02       BCC   2       3d3a
3d38   69 4f       ADC #&4f
3d3a   20 49 24    JSR &2449
3d3d   d0 05       BNE   5       3d44
3d3f   20 70 24    JSR &2470
3d42   b0 ca       BCS -54       3d0e
3d44   20 1e 16    JSR &161e
3d47   b0 c5       BCS -59       3d0e
3d49   9d 00 04    STA &0400,X
3d4c   0a          ASL A
3d4d   85 50       STA &50
3d4f   a5 2e       LDA &2e
3d51   30 05       BMI   5       3d58
3d53   de 60 04    DEC &0460,Y
3d56   10 05       BPL   5       3d5d
3d58   a9 7f       LDA #&7f
3d5a   9d 70 06    STA &0670,X
3d5d   bd 10 04    LDA &0410,X
3d60   85 51       STA &51
3d62   20 24 2e    JSR &2e24
3d65   a5 53       LDA &53
3d67   9d 20 04    STA &0420,X
3d6a   a5 54       LDA &54
3d6c   9d 30 04    STA &0430,X
3d6f   60          RTS 
3d70   bd 50 04    LDA &0450,X
3d73   18          CLC 
3d74   69 02       ADC #&02
3d76   9d 50 04    STA &0450,X
3d79   bd 40 04    LDA &0440,X
3d7c   e9 02       SBC #&02
3d7e   9d 40 04    STA &0440,X
3d81   10 07       BPL   7       3d8a
3d83   a9 ff       LDA #&ff
3d85   9d 70 06    STA &0670,X
3d88   38          SEC 
3d89   60          RTS 
3d8a   18          CLC 
3d8b   60          RTS 
3d8c   c9 81       CMP #&81                     ; BYTEV, OSByte indirect goes in here
3d8e   f0 03       BEQ   3       3d93           ; If we are doing a keyboard scan, jump to custom code
3d90   4c 72 e7    JMP &e772                    ; ...otherwise, jump straight to OS
3d93   a5 21       LDA &21                      ; Check joystick flag
3d95   d0 05       BNE   5       3d9c           ; Branch if set
3d97   a9 81       LDA #&81                     ; Otherwise...
3d99   4c 72 e7    JMP &e772                    ; ...Jump to OS
3d9c   e0 fe       CPX #&fe                     ; Joystick flag set
3d9e   f0 19       BEQ  25       3db9
3da0   e0 ff       CPX #&ff
3da2   f0 1f       BEQ  31       3dc3
3da4   e0 bf       CPX #&bf
3da6   f0 30       BEQ  48       3dd8
3da8   e0 b6       CPX #&b6
3daa   d0 eb       BNE -21       3d97
3dac   a2 00       LDX #&00
3dae   a9 80       LDA #&80                     ; Set up OSByte for read ADC channel
3db0   20 72 e7    JSR &e772                    ; .. and jump to OS
3db3   8a          TXA 
3db4   0a          ASL A
3db5   25 67       AND &67
3db7   aa          TAX 
3db8   60          RTS 
3db9   a5 22       LDA &22
3dbb   c9 57       CMP #&57
3dbd   a9 00       LDA #&00
3dbf   e9 00       SBC #&00
3dc1   aa          TAX 
3dc2   60          RTS 
3dc3   a5 67       LDA &67
3dc5   29 01       AND &01
3dc7   0a          ASL A
3dc8   69 02       ADC #&02
3dca   aa          TAX 
3dcb   a9 80       LDA #&80
3dcd   20 72 e7    JSR &e772
3dd0   c0 90       CPY #&90
3dd2   a9 00       LDA #&00
3dd4   69 00       ADC #&00
3dd6   aa          TAX 
3dd7   60          RTS 
3dd8   a5 67       LDA &67
3dda   29 01       AND &01
3ddc   0a          ASL A
3ddd   69 01       ADC #&01
3ddf   aa          TAX 
3de0   a9 80       LDA #&80
3de2   20 72 e7    JSR &e772
3de5   84 22       STY &22
3de7   c0 a8       CPY #&a8
3de9   a9 00       LDA #&00
3deb   69 00       ADC #&00
3ded   aa          TAX 
3dee   60          RTS 
3def   20 f8 15    JSR &15f8
3df2   c9 a0       CMP #&a0
3df4   a9 00       LDA #&00
3df6   69 00       ADC #&00
3df8   85 5e       STA &5e
3dfa   60          RTS 
3dfb   15 85       ORA &85,X
3dfd   62          ???
3dfe   60          RTS 
3dff   ea          NOP 
3e00   00          BRK   
3e01   50 50       BVC  80       3e53
3e03   f0 f1       BEQ -15       3df6
3e05   50 50       BVC  80       3e57
3e07   00          BRK   
3e08   f0 f2       BEQ -14       3dfc
3e0a   f1 f2       SBC -14       3dfe
3e0c   f1 f2       SBC -14       3e00
3e0e   f1 f0       SBC -16       3e00
3e10   f0 f2       BEQ -14       3e04
3e12   f1 f2       SBC -14       3e06
3e14   f1 f2       SBC -14       3e08
3e16   f0 f0       BEQ -16       3e08
3e18   f0 f2       BEQ -14       3e0c
3e1a   f1 f2       SBC -14       3e0e
3e1c   f1 f2       SBC -14       3e10
3e1e   f1 f0       SBC -16       3e10
3e20   f0 f2       BEQ -14       3e14
3e22   f1 f2       SBC -14       3e16
3e24   f1 f2       SBC -14       3e18
3e26   f1 f0       SBC -16       3e18
3e28   f0 f2       BEQ -14       3e1c
3e2a   f1 f2       SBC -14       3e1e
3e2c   f1 f2       SBC -14       3e20
3e2e   f0 f0       BEQ -16       3e20
3e30   f0 f2       BEQ -14       3e24
3e32   f1 f2       SBC -14       3e26
3e34   f1 f2       SBC -14       3e28
3e36   f0 f0       BEQ -16       3e28
3e38   f0 f2       BEQ -14       3e2c
3e3a   f1 f2       SBC -14       3e2e
3e3c   f1 f2       SBC -14       3e30
3e3e   f1 f0       SBC -16       3e30
3e40   f0 f2       BEQ -14       3e34
3e42   f1 f2       SBC -14       3e36
3e44   f1 f2       SBC -14       3e38
3e46   f0 f0       BEQ -16       3e38
3e48   f0 f2       BEQ -14       3e3c
3e4a   f1 f2       SBC -14       3e3e
3e4c   f1 f2       SBC -14       3e40
3e4e   f1 f0       SBC -16       3e40
3e50   f0 f2       BEQ -14       3e44
3e52   f1 f2       SBC -14       3e46
3e54   f1 f2       SBC -14       3e48
3e56   f1 f0       SBC -16       3e48
3e58   00          BRK   
3e59   a0 a0       LDY #&a0
3e5b   f0 f0       BEQ -16       3e4d
3e5d   a0 a0       LDY #&a0
3e5f   00          BRK   
3e60   63          ???
3e61   05 1c       ORA &1c
3e63   20 ff 69    JSR &69ff
3e66   f0 8d       BEQ 115       3df5
3e68   21 fe 4c    AND X,&4cfe
3e6b   7e 1d fc    ROR &fc1d,X
3e6e   2a          ROL A
3e6f   00          BRK   
3e70   a5 73       LDA &73
3e72   4a          LSR A
3e73   a9 00       LDA #&00
3e75   69 0c       ADC #&0c
3e77   a8          TAY 
3e78   a5 73       LDA &73
3e7a   29 80       AND &80
3e7c   aa          TAX 
3e7d   a5 75       LDA &75
3e7f   f0 09       BEQ   9       3e8a
3e81   8a          TXA 
3e82   18          CLC 
3e83   69 c0       ADC #&c0
3e85   aa          TAX 
3e86   98          TYA 
3e87   69 00       ADC #&00
3e89   a8          TAY 
3e8a   8a          TXA 
3e8b   18          CLC 
3e8c   65 76       ADC &76
3e8e   aa          TAX 
3e8f   98          TYA 
3e90   69 00       ADC #&00
3e92   a8          TAY 
3e93   a5 71       LDA &71
3e95   85 53       STA &53
3e97   a5 72       LDA &72
3e99   69 05       ADC #&05
3e9b   85 54       STA &54
3e9d   a5 5c       LDA &5c
3e9f   85 50       STA &50
3ea1   a5 5d       LDA &5d
3ea3   29 07       AND &07
3ea5   85 52       STA &52
3ea7   a9 3f       LDA #&3f
3ea9   4c a7 08    JMP &08a7
3eac   00          BRK   
3ead   00          BRK   
3eae   a5 a5       LDA &a5
3eb0   6b          ???
3eb1   30 2b       BMI  43       3ede
3eb3   d0 04       BNE   4       3eb9
3eb5   a5 6e       LDA &6e
3eb7   30 25       BMI  37       3ede
3eb9   a5 71       LDA &71
3ebb   18          CLC 
3ebc   69 58       ADC #&58
3ebe   aa          TAX 
3ebf   a5 72       LDA &72
3ec1   69 02       ADC #&02
3ec3   a8          TAY 
3ec4   8a          TXA 
3ec5   38          SEC 
3ec6   e5 69       SBC &69
3ec8   98          TYA 
3ec9   e5 6a       SBC &6a
3ecb   b0 11       BCS  17       3ede
3ecd   8a          TXA 
3ece   69 50       ADC #&50
3ed0   aa          TAX 
3ed1   98          TYA 
3ed2   69 00       ADC #&00
3ed4   a8          TAY 
3ed5   8a          TXA 
3ed6   38          SEC 
3ed7   e5 69       SBC &69
3ed9   98          TYA 
3eda   e5 6a       SBC &6a
3edc   b0 01       BCS   1       3edf
3ede   60          RTS 
3edf   a6 67       LDX &67
3ee1   f8          SED 
3ee2   a9 74       LDA #&74
3ee4   75 8a       ROR &8a,X
3ee6   95 8a       STA &8a,X
3ee8   ca          DEX 
3ee9   b5 8a       LDA &8a,X
3eeb   69 03       ADC #&03
3eed   20 ce 2d    JSR &2dce
3ef0   a9 00       LDA #&00
3ef2   85 6e       STA &6e
3ef4   85 6b       STA &6b
3ef6   a2 10       LDX #&10
3ef8   4c fc 2a    JMP &2afc
3efb   a2 bf       LDX #&bf
3efd   a0 bf       LDY #&bf
3eff   a9 81       LDA #&81
3f01   20 f4 ff    JSR &fff4                    ; Keyboard  (CAPS LK?)
3f04   8a          TXA 
3f05   d0 12       BNE  18       3f19
3f07   a2 fe       LDX #&fe
3f09   a0 fe       LDY #&fe
3f0b   a9 81       LDA #&81
3f0d   20 f4 ff    JSR &fff4                    ; Keyboard (CTRL?)
3f10   8a          TXA 
3f11   d0 13       BNE  19       3f26
3f13   a9 00       LDA #&00
3f15   85 79       STA &79
3f17   f0 18       BEQ  24       3f31
3f19   a6 75       LDX &75
3f1b   bd 60 2d    LDA &2d60,X
3f1e   85 79       STA &79
3f20   a9 ff       LDA #&ff
3f22   85 73       STA &73
3f24   d0 0b       BNE  11       3f31
3f26   a6 75       LDX &75
3f28   bd 5e 2d    LDA &2d5e,X
3f2b   85 79       STA &79
3f2d   a9 00       LDA #&00
3f2f   85 73       STA &73
3f31   a2 ff       LDX #&ff
3f33   a0 ff       LDY #&ff
3f35   a9 81       LDA #&81
3f37   20 f4 ff    JSR &fff4                    ; Keyboard
3f3a   8a          TXA 
3f3b   86 7a       STX &7a
3f3d   f0 1d       BEQ  29       3f5c
3f3f   a5 75       LDA &75
3f41   d0 1a       BNE  26       3f5d
3f43   a5 77       LDA &77
3f45   38          SEC 
3f46   e9 90       SBC #&90
3f48   85 77       STA &77
3f4a   a5 78       LDA &78
3f4c   e9 01       SBC #&01
3f4e   10 0a       BPL  10       3f5a
3f50   c9 fb       CMP #&fb
3f52   b0 06       BCS   6       3f5a
3f54   a9 00       LDA #&00
3f56   85 77       STA &77
3f58   a9 fb       LDA #&fb
3f5a   85 78       STA &78
3f5c   60          RTS 
3f5d   a9 fe       LDA #&fe
3f5f   85 78       STA &78
3f61   60          RTS 
3f62   a5 78       LDA &78
3f64   10 55       BPL  85       3fbb
3f66   18          CLC 
3f67   65 5d       ADC &5d
3f69   85 51       STA &51
3f6b   a5 5c       LDA &5c
3f6d   85 50       STA &50
3f6f   20 24 2e    JSR &2e24
3f72   a6 53       LDX &53
3f74   a4 54       LDY &54
3f76   8a          TXA 
3f77   38          SEC 
3f78   e9 10       SBC #&10
3f7a   98          TYA 
3f7b   e9 54       SBC #&54
3f7d   90 08       BCC   8       3f87
3f7f   8a          TXA 
3f80   e9 b8       SBC #&b8
3f82   98          TYA 
3f83   e9 54       SBC #&54
3f85   90 28       BCC  40       3faf
3f87   8a          TXA 
3f88   38          SEC 
3f89   e9 50       SBC #&50
3f8b   98          TYA 
3f8c   e9 61       SBC #&61
3f8e   90 08       BCC   8       3f98
3f90   8a          TXA 
3f91   e9 d8       SBC #&d8
3f93   98          TYA 
3f94   e9 61       SBC #&61
3f96   90 17       BCC  23       3faf
3f98   8a          TXA 
3f99   38          SEC 
3f9a   e9 b0       SBC #&b0
3f9c   98          TYA 
3f9d   e9 50       SBC #&50
3f9f   90 08       BCC   8       3fa9
3fa1   8a          TXA 
3fa2   e9 58       SBC #&58
3fa4   98          TYA 
3fa5   e9 51       SBC #&51
3fa7   90 06       BCC   6       3faf
3fa9   c0 45       CPY #&45
3fab   90 02       BCC   2       3faf
3fad   b0 0c       BCS  12       3fbb
3faf   a9 00       LDA #&00
3fb1   85 78       STA &78
3fb3   a5 51       LDA &51
3fb5   69 08       ADC #&08
3fb7   29 f8       AND &f8
3fb9   85 5d       STA &5d
3fbb   a5 5d       LDA &5d
3fbd   29 07       AND &07
3fbf   a8          TAY 
3fc0   a5 75       LDA &75
3fc2   d0 06       BNE   6       3fca
3fc4   a5 79       LDA &79
3fc6   30 3b       BMI  59       4003
3fc8   d0 01       BNE   1       3fcb
3fca   60          RTS 
3fcb   a5 71       LDA &71
3fcd   18          CLC 
3fce   69 48       ADC #&48
3fd0   85 53       STA &53
3fd2   85 2e       STA &2e
3fd4   a5 72       LDA &72
3fd6   69 00       ADC #&00
3fd8   c9 64       CMP #&64
3fda   b0 ee       BCS -18       3fca
3fdc   85 54       STA &54
3fde   85 2f       STA &2f
3fe0   20 36 27    JSR &2736
3fe3   8a          TXA 
3fe4   f0 e4       BEQ -28       3fca
3fe6   a5 2e       LDA &2e
3fe8   38          SEC 
3fe9   e9 08       SBC #&08
3feb   85 53       STA &53
3fed   a5 2f       LDA &2f
3fef   e9 00       SBC #&00
3ff1   85 54       STA &54
3ff3   20 36 27    JSR &2736
3ff6   8a          TXA 
3ff7   d0 05       BNE   5       3ffe
3ff9   a9 02       LDA #&02
3ffb   85 79       STA &79
3ffd   60          RTS 
3ffe   a9 00       LDA #&00
4000   85 79       STA &79
4002   60          RTS 
4003   a5 71       LDA &71
4005   38          SEC 
4006   e9 10       SBC #&10
4008   85 53       STA &53
400a   85 2e       STA &2e
400c   a5 72       LDA &72
400e   e9 00       SBC #&00
4010   c9 45       CMP #&45
4012   90 b6       BCC -74       3fca
4014   85 54       STA &54
4016   85 2f       STA &2f
4018   20 36 27    JSR &2736
401b   8a          TXA 
401c   f0 ac       BEQ -84       3fca
401e   a5 2e       LDA &2e
4020   18          CLC 
4021   69 08       ADC #&08
4023   85 53       STA &53
4025   a5 2f       LDA &2f
4027   69 00       ADC #&00
4029   85 54       STA &54
402b   20 36 27    JSR &2736
402e   8a          TXA 
402f   d0 cd       BNE -51       3ffe
4031   a9 fe       LDA #&fe
4033   85 79       STA &79
4035   60          RTS 
4036   a2 18       LDX #&18
4038   b1 53 c9    LDA (&c953,Y)
403b   f0 b0       BEQ -80       3fed
403d   18          CLC 
403e   ca          DEX 
403f   f0 1b       BEQ  27       405c
4041   c8          INY 
4042   c0 08       CPY #&08
4044   90 f2       BCC -14       4038
4046   a0 00       LDY #&00
4048   a5 53       LDA &53
404a   69 7f       ADC #&7f
404c   85 53       STA &53
404e   a5 54       LDA &54
4050   69 02       ADC #&02
4052   85 54       STA &54
4054   d0 e2       BNE -30       4038
4056   49 ff       EOR #&ff
4058   c9 02       CMP #&02
405a   90 e2       BCC -30       403e
405c   60          RTS 
405d   f4          ???
405e   a5 60       LDA &60
4060   c9 03       CMP #&03
4062   f0 06       BEQ   6       406a
4064   c9 04       CMP #&04
4066   f0 02       BEQ   2       406a
4068   d0 0e       BNE  14       4078
406a   bd 50 06    LDA &0650,X
406d   30 04       BMI   4       4073
406f   a9 04       LDA #&04
4071   d0 02       BNE   2       4075
4073   a9 fc       LDA #&fc
4075   9d 50 06    STA &0650,X
4078   4c 64 2c    JMP &2c64
407b   a6 71       LDX &71
407d   a4 72       LDY &72
407f   8a          TXA 
4080   38          SEC 
4081   e9 90       SBC #&90
4083   98          TYA 
4084   e9 4c       SBC #&4c
4086   90 09       BCC   9       4091
4088   8a          TXA 
4089   38          SEC 
408a   e9 38       SBC #&38
408c   98          TYA 
408d   e9 4d       SBC #&4d
408f   90 32       BCC  50       40c3
4091   8a          TXA 
4092   38          SEC 
4093   e9 d0       SBC #&d0
4095   98          TYA 
4096   e9 59       SBC #&59
4098   90 09       BCC   9       40a3
409a   8a          TXA 
409b   38          SEC 
409c   e9 58       SBC #&58
409e   98          TYA 
409f   e9 5a       SBC #&5a
40a1   90 20       BCC  32       40c3
40a3   8a          TXA 
40a4   38          SEC 
40a5   e9 30       SBC #&30
40a7   98          TYA 
40a8   e9 49       SBC #&49
40aa   90 09       BCC   9       40b5
40ac   8a          TXA 
40ad   38          SEC 
40ae   e9 d8       SBC #&d8
40b0   98          TYA 
40b1   e9 49       SBC #&49
40b3   90 0e       BCC  14       40c3
40b5   8a          TXA 
40b6   38          SEC 
40b7   e9 80       SBC #&80
40b9   98          TYA 
40ba   e9 74       SBC #&74
40bc   b0 05       BCS   5       40c3
40be   a9 00       LDA #&00
40c0   85 75       STA &75
40c2   60          RTS 
40c3   a5 5d       LDA &5d
40c5   29 f8       AND &f8
40c7   85 5d       STA &5d
40c9   a9 01       LDA #&01
40cb   85 75       STA &75
40cd   60          RTS 
40ce   00          BRK   
40cf   00          BRK   
40d0   a5 5d       LDA &5d
40d2   29 07       AND &07
40d4   85 52       STA &52
40d6   a5 5c       LDA &5c
40d8   85 50       STA &50
40da   a5 71       LDA &71
40dc   85 53       STA &53
40de   a5 72       LDA &72
40e0   85 54       STA &54
40e2   a5 73       LDA &73
40e4   2a          ROL A
40e5   a9 00       LDA #&00
40e7   6a          ROR A
40e8   aa          TAX 
40e9   a0 34       LDY #&34
40eb   a9 7f       LDA #&7f
40ed   4c a7 08    JMP &08a7
40f0   00          BRK   
40f1   60          RTS 
40f2   c0 20       CPY #&20
40f4   80          ???
40f5   09 09       ORA &09
40f7   09 0a       ORA &0a
40f9   0a          ASL A
40fa   00          BRK   
40fb   60          RTS 
40fc   80          ???
40fd   c0 00       CPY #&00
40ff   20 e0 20    JSR &20e0
4102   45 45       EOR &45
4104   45 45       EOR &45
4106   46 46       LSR &46
4108   46 47       LSR &47
410a   53          ???
410b   13          ???
410c   13          ???
410d   53          ???
410e   27          ???
410f   27          ???
4110   0b          ???
4111   0b          ???
4112   00          BRK   
4113   80          ???
4114   00          BRK   
4115   80          ???
4116   00          BRK   
4117   80          ???
4118   00          BRK   
4119   80          ???
411a   38          SEC 
411b   38          SEC 
411c   39 39 3a    AND &3a39,Y
411f   3a          ???
4120   3b          ???
4121   3b          ???
4122   a5 6b       LDA &6b
4124   30 5d       BMI  93       4183
4126   f0 26       BEQ  38       414e
4128   c6 6b       DEC &6b
412a   f0 22       BEQ  34       414e
412c   20 da 28    JSR &28da
412f   e6 68       INC &68
4131   e6 68       INC &68
4133   a5 68       LDA &68
4135   c9 08       CMP #&08
4137   90 0e       BCC  14       4147
4139   a5 69       LDA &69
413b   69 7f       ADC #&7f
413d   85 69       STA &69
413f   a5 6a       LDA &6a
4141   69 02       ADC #&02
4143   85 6a       STA &6a
4145   a5 68       LDA &68
4147   29 07       AND &07
4149   85 68       STA &68
414b   4c da 28    JMP &28da
414e   a5 6c       LDA &6c
4150   d0 0c       BNE  12       415e
4152   c6 6e       DEC &6e
4154   30 01       BMI   1       4157
4156   60          RTS 
4157   a9 01       LDA #&01
4159   85 6c       STA &6c
415b   4c da 28    JMP &28da
415e   c9 01       CMP #&01
4160   f0 03       BEQ   3       4165
4162   20 ba 28    JSR &28ba
4165   e6 6c       INC &6c
4167   a5 6c       LDA &6c
4169   c9 0a       CMP #&0a
416b   f0 04       BEQ   4       4171
416d   38          SEC 
416e   4c ba 28    JMP &28ba
4171   a9 ff       LDA #&ff
4173   85 6b       STA &6b
4175   a9 00       LDA #&00
4177   85 6c       STA &6c
4179   20 14 2e    JSR &2e14
417c   a5 58       LDA &58
417e   29 3f       AND &3f
4180   85 6e       STA &6e
4182   60          RTS 
4183   c6 6e       DEC &6e
4185   30 01       BMI   1       4188
4187   60          RTS 
4188   20 14 2e    JSR &2e14
418b   a5 58       LDA &58
418d   29 7f       AND &7f
418f   38          SEC 
4190   e9 05       SBC #&05
4192   10 fc       BPL  -4       4190
4194   69 05       ADC #&05
4196   85 6d       STA &6d
4198   20 14 2e    JSR &2e14
419b   a5 58       LDA &58
419d   29 07       AND &07
419f   aa          TAX 
41a0   bd fa 27    LDA &27fa,X
41a3   85 69       STA &69
41a5   bd 02 28    LDA &2802,X
41a8   85 6a       STA &6a
41aa   a9 00       LDA #&00
41ac   85 68       STA &68
41ae   bd 0a 28    LDA &280a,X
41b1   85 6b       STA &6b
41b3   a9 20       LDA #&20
41b5   85 6e       STA &6e
41b7   4c da 28    JMP &28da
41ba   e9 02       SBC #&02
41bc   aa          TAX 
41bd   a5 68       LDA &68
41bf   29 07       AND &07
41c1   85 52       STA &52
41c3   a5 6a       LDA &6a
41c5   85 54       STA &54
41c7   a5 69       LDA &69
41c9   85 53       STA &53
41cb   bc 1a 28    LDY &281a,X
41ce   bd 12 28    LDA &2812,X
41d1   85 2e       STA &2e
41d3   a9 7f       LDA #&7f
41d5   a6 2e       LDX &2e
41d7   4c 00 11    JMP &1100
41da   a6 6d       LDX &6d
41dc   a9 00       LDA #&00
41de   85 50       STA &50
41e0   a5 68       LDA &68
41e2   29 07       AND &07
41e4   85 52       STA &52
41e6   a5 6a       LDA &6a
41e8   85 54       STA &54
41ea   a5 69       LDA &69
41ec   85 53       STA &53
41ee   bc f5 27    LDY &27f5,X
41f1   bd f0 27    LDA &27f0,X
41f4   85 2e       STA &2e
41f6   a9 5f       LDA #&5f
41f8   a6 2e       LDX &2e
41fa   4c 00 11    JMP &1100
41fd   29 00       AND &00
41ff   00          BRK   
4200   10 00       BPL   0       4202
4202   f4          ???
4203   ff          ???
4204   06 00       ASL &00
4206   04          ???
4207   00          BRK   
4208   10 00       BPL   0       420a
420a   f1 ff       SBC  -1       420b
420c   04          ???
420d   00          BRK   
420e   05 00       ORA &00
4210   11 00 01    ORA (&0100,Y)
4213   00          BRK   
4214   06 00       ASL &00
4216   05 00       ORA &00
4218   03          ???
4219   00          BRK   
421a   f4          ???
421b   ff          ???
421c   78          SEI 
421d   00          BRK   
421e   03          ???
421f   00          BRK   
4220   01 00 00    ORA X,&0000
4223   00          BRK   
4224   78          SEI 
4225   00          BRK   
4226   01 00 12    ORA X,&1200
4229   00          BRK   
422a   03          ???
422b   00          BRK   
422c   10 00       BPL   0       422e
422e   0a          ASL A
422f   00          BRK   
4230   12          ???
4231   00          BRK   
4232   03          ???
4233   00          BRK   
4234   30 00       BMI   0       4236
4236   08          PHP 
4237   00          BRK   
4238   10 00       BPL   0       423a
423a   02          ???
423b   00          BRK   
423c   06 00       ASL &00
423e   03          ???
423f   00          BRK   
4240   a2 00       LDX #&00
4242   86 5b       STX &5b
4244   bd 44 06    LDA &0644,X
4247   f0 70       BEQ 112       42b9
4249   10 03       BPL   3       424e
424b   4c ec 12    JMP &12ec
424e   c9 02       CMP #&02
4250   90 2a       BCC  42       427c
4252   e9 02       SBC #&02
4254   4a          LSR A
4255   08          PHP 
4256   18          CLC 
4257   69 38       ADC #&38
4259   a8          TAY 
425a   bd 26 06    LDA &0626,X
425d   85 50       STA &50
425f   bd 32 06    LDA &0632,X
4262   29 07       AND &07
4264   85 52       STA &52
4266   bd 38 06    LDA &0638,X
4269   85 53       STA &53
426b   bd 3e 06    LDA &063e,X
426e   85 54       STA &54
4270   28          PLP 
4271   a9 00       LDA #&00
4273   6a          ROR A
4274   aa          TAX 
4275   a9 7f       LDA #&7f
4277   20 a7 08    JSR &08a7
427a   a6 5b       LDX &5b
427c   fe 44 06    INC &0644,X
427f   bd 44 06    LDA &0644,X
4282   c9 0a       CMP #&0a
4284   f0 2b       BEQ  43       42b1
4286   e9 01       SBC #&01
4288   4a          LSR A
4289   08          PHP 
428a   18          CLC 
428b   69 38       ADC #&38
428d   a8          TAY 
428e   bd 26 06    LDA &0626,X
4291   85 50       STA &50
4293   bd 32 06    LDA &0632,X
4296   29 07       AND &07
4298   85 52       STA &52
429a   bd 38 06    LDA &0638,X
429d   85 53       STA &53
429f   bd 3e 06    LDA &063e,X
42a2   85 54       STA &54
42a4   28          PLP 
42a5   a9 00       LDA #&00
42a7   6a          ROR A
42a8   aa          TAX 
42a9   a9 7f       LDA #&7f
42ab   20 a7 08    JSR &08a7
42ae   4c f0 2a    JMP &2af0
42b1   a9 ff       LDA #&ff
42b3   9d 44 06    STA &0644,X
42b6   4c f0 2a    JMP &2af0
42b9   a9 f8       LDA #&f8
42bb   85 56       STA &56
42bd   a9 2e       LDA #&2e
42bf   85 57       STA &57
42c1   a9 ef       LDA #&ef
42c3   85 63       STA &63
42c5   20 64 2c    JSR &2c64
42c8   a9 c0       LDA #&c0
42ca   85 56       STA &56
42cc   a9 2e       LDA #&2e
42ce   85 57       STA &57
42d0   a5 63       LDA &63
42d2   c9 f0       CMP #&f0
42d4   90 03       BCC   3       42d9
42d6   4c 13 2b    JMP &2b13
42d9   a5 5f       LDA &5f
42db   f0 05       BEQ   5       42e2
42dd   20 90 2c    JSR &2c90
42e0   a6 5b       LDX &5b
42e2   bd 2c 06    LDA &062c,X
42e5   18          CLC 
42e6   7d 56 06    ADC &0656,X
42e9   9d 2c 06    STA &062c,X
42ec   bd 32 06    LDA &0632,X
42ef   7d 5c 06    ADC &065c,X
42f2   9d 32 06    STA &0632,X
42f5   85 51       STA &51
42f7   bd 20 06    LDA &0620,X
42fa   18          CLC 
42fb   7d 4a 06    ADC &064a,X
42fe   9d 20 06    STA &0620,X
4301   bd 26 06    LDA &0626,X
4304   7d 50 06    ADC &0650,X
4307   c9 a0       CMP #&a0
4309   90 0a       BCC  10       4315
430b   c9 c8       CMP #&c8
430d   90 04       BCC   4       4313
430f   a9 9f       LDA #&9f
4311   d0 02       BNE   2       4315
4313   a9 00       LDA #&00
4315   9d 26 06    STA &0626,X
4318   85 50       STA &50
431a   20 24 2e    JSR &2e24
431d   a5 53       LDA &53
431f   9d 38 06    STA &0638,X
4322   a5 54       LDA &54
4324   9d 3e 06    STA &063e,X
4327   a5 5e       LDA &5e
4329   f0 4e       BEQ  78       4379
432b   a5 5d       LDA &5d
432d   c5 51       CMP &51
432f   90 06       BCC   6       4337
4331   fe 5c 06    INC &065c,X
4334   4c 3a 2a    JMP &2a3a
4337   de 5c 06    DEC &065c,Y
433a   a5 61       LDA &61
433c   f0 12       BEQ  18       4350
433e   a5 5c       LDA &5c
4340   e5 50       SBC &50
4342   30 06       BMI   6       434a
4344   20 7d 2d    JSR &2d7d
4347   4c c1 2a    JMP &2ac1
434a   20 6c 2d    JSR &2d6c
434d   4c c1 2a    JMP &2ac1
4350   bd 62 06    LDA &0662,X
4353   c9 ff       CMP #&ff
4355   f0 6a       BEQ 106       43c1
4357   69 01       ADC #&01
4359   9d 62 06    STA &0662,X
435c   c9 ff       CMP #&ff
435e   f0 07       BEQ   7       4367
4360   a9 00       LDA #&00
4362   9d 5c 06    STA &065c,X
4365   f0 0d       BEQ  13       4374
4367   9d 5c 06    STA &065c,X
436a   20 14 2e    JSR &2e14
436d   a5 58       LDA &58
436f   9d 5c 06    STA &065c,X
4372   a9 00       LDA #&00
4374   9d 26 06    STA &0626,X
4377   f0 48       BEQ  72       43c1
4379   a5 62       LDA &62
437b   f0 44       BEQ  68       43c1
437d   a5 61       LDA &61
437f   d0 1c       BNE  28       439d
4381   20 14 2e    JSR &2e14
4384   a5 58       LDA &58
4386   c9 f8       CMP #&f8
4388   90 37       BCC  55       43c1
438a   20 14 2e    JSR &2e14
438d   a5 58       LDA &58
438f   9d 5c 06    STA &065c,X
4392   4c 16 1a    JMP &1a16
4395   a5 58       LDA &58
4397   9d 50 06    STA &0650,X
439a   4c c1 2a    JMP &2ac1
439d   20 14 2e    JSR &2e14
43a0   a5 58       LDA &58
43a2   30 06       BMI   6       43aa
43a4   20 7d 2d    JSR &2d7d
43a7   4c ad 2a    JMP &2aad
43aa   20 6c 2d    JSR &2d6c
43ad   a5 64       LDA &64
43af   d0 10       BNE  16       43c1
43b1   20 14 2e    JSR &2e14
43b4   a5 58       LDA &58
43b6   30 06       BMI   6       43be
43b8   20 9f 2d    JSR &2d9f
43bb   4c c4 2a    JMP &2ac4
43be   20 8e 2d    JSR &2d8e
43c1   bd 50 06    LDA &0650,X
43c4   10 08       BPL   8       43ce
43c6   c9 fc       CMP #&fc
43c8   b0 0d       BCS  13       43d7
43ca   a9 fc       LDA #&fc
43cc   d0 06       BNE   6       43d4
43ce   c9 04       CMP #&04
43d0   90 05       BCC   5       43d7
43d2   a9 03       LDA #&03
43d4   9d 50 06    STA &0650,X
43d7   bd 5c 06    LDA &065c,X
43da   10 08       BPL   8       43e4
43dc   c9 fd       CMP #&fd
43de   b0 0d       BCS  13       43ed
43e0   a9 fd       LDA #&fd
43e2   d0 06       BNE   6       43ea
43e4   c9 03       CMP #&03
43e6   90 05       BCC   5       43ed
43e8   a9 02       LDA #&02
43ea   9d 5c 06    STA &065c,X
43ed   20 64 2c    JSR &2c64
43f0   e6 5b       INC &5b
43f2   a6 5b       LDX &5b
43f4   e0 06       CPX #&06
43f6   b0 03       BCS   3       43fb
43f8   4c 44 29    JMP &2944
43fb   60          RTS 
43fc   a0 29       LDY #&29
43fe   a9 07       LDA #&07
4400   4c f1 ff    JMP &fff1
4403   a5 55       LDA &55
4405   f0 09       BEQ   9       4410
4407   b1 31 c5    LDA (&c531,Y)
440a   63          ???
440b   90 03       BCC   3       4410
440d   85 63       STA &63
440f   18          CLC 
4410   4c c0 2e    JMP &2ec0
4413   a4 60       LDY &60
4415   c0 03       CPY #&03
4417   f0 08       BEQ   8       4421
4419   c9 ff       CMP #&ff
441b   90 11       BCC  17       442e
441d   06 65       ASL &65
441f   90 0d       BCC  13       442e
4421   20 f9 10    JSR &10f9
4424   a2 00       LDX #&00
4426   20 fc 2a    JSR &2afc
4429   a6 5b       LDX &5b
442b   4c 35 2b    JMP &2b35
442e   a2 08       LDX #&08
4430   20 fc 2a    JSR &2afc
4433   a6 5b       LDX &5b
4435   a9 01       LDA #&01
4437   9d 44 06    STA &0644,X
443a   4c f0 2a    JMP &2af0
443d   31 00 8e    AND (&8e00,Y)
4440   1e 78 00    ORA &0078
4443   00          BRK   
4444   65 00       ADC &00
4446   6e 76 00    ROR &0076
4449   40          RTI 
444a   80          ???
444b   c0 00       CPY #&00
444d   40          RTI 
444e   80          ???
444f   c0 36       CPY #&36
4451   36 36       ROL &36,X
4453   36 37       ROL &37,X
4455   37          ???
4456   37          ???
4457   37          ???
4458   20 30 40    JSR &4030
445b   50 60       BVC  96       44bd
445d   70 65       BVS 101       44c4
445f   66 73       ROR &73
4461   00          BRK   
4462   8e 1f a2    STX &a21f
4465   00          BRK   
4466   bd 44 06    LDA &0644,X
4469   30 06       BMI   6       4471
446b   e8          INX 
446c   e0 06       CPX #&06
446e   90 f6       BCC -10       4466
4470   60          RTS 
4471   86 66       STX &66
4473   a9 00       LDA #&00
4475   9d 44 06    STA &0644,X
4478   20 e9 10    JSR &10e9
447b   a5 58       LDA &58
447d   c9 10       CMP #&10
447f   90 f7       BCC  -9       4478
4481   c9 ae       CMP #&ae
4483   b0 f3       BCS -13       4478
4485   9d 32 06    STA &0632,X
4488   85 51       STA &51
448a   a9 00       LDA #&00
448c   9d 26 06    STA &0626,X
448f   85 50       STA &50
4491   20 24 2e    JSR &2e24
4494   a5 53       LDA &53
4496   9d 38 06    STA &0638,X
4499   a5 54       LDA &54
449b   9d 3e 06    STA &063e,X
449e   a5 51       LDA &51
44a0   c9 30       CMP #&30
44a2   b0 0f       BCS  15       44b3
44a4   20 14 2e    JSR &2e14
44a7   a5 58       LDA &58
44a9   29 07       AND &07
44ab   c9 04       CMP #&04
44ad   90 11       BCC  17       44c0
44af   a9 03       LDA #&03
44b1   d0 0d       BNE  13       44c0
44b3   20 14 2e    JSR &2e14
44b6   a5 58       LDA &58
44b8   09 f8       ORA &f8
44ba   c9 fc       CMP #&fc
44bc   b0 02       BCS   2       44c0
44be   a9 fc       LDA #&fc
44c0   4c a9 1b    JMP &1ba9
44c3   20 14 2e    JSR &2e14
44c6   a5 58       LDA &58
44c8   9d 4a 06    STA &064a,X
44cb   20 14 2e    JSR &2e14
44ce   a5 58       LDA &58
44d0   9d 56 06    STA &0656,X
44d3   20 14 2e    JSR &2e14
44d6   a5 58       LDA &58
44d8   30 0e       BMI  14       44e8
44da   a4 60       LDY &60
44dc   f0 08       BEQ   8       44e6
44de   c0 06       CPY #&06
44e0   f0 04       BEQ   4       44e6
44e2   09 fc       ORA &fc
44e4   30 04       BMI   4       44ea
44e6   29 00       AND &00
44e8   29 01       AND &01
44ea   9d 5c 06    STA &065c,X
44ed   a5 60       LDA &60
44ef   c9 03       CMP #&03
44f1   d0 05       BNE   5       44f8
44f3   a9 e6       LDA #&e6
44f5   9d 62 06    STA &0662,X
44f8   8a          TXA 
44f9   4a          LSR A
44fa   a8          TAY 
44fb   a9 00       LDA #&00
44fd   6a          ROR A
44fe   85 53       STA &53
4500   85 50       STA &50
4502   98          TYA 
4503   69 31       ADC #&31
4505   85 54       STA &54
4507   85 51       STA &51
4509   86 33       STX &33
450b   a6 60       LDX &60
450d   bc 50 2b    LDY &2b50,X
4510   bd 48 2b    LDA &2b48,X
4513   85 30       STA &30
4515   a9 40       LDA #&40
4517   85 55       STA &55
4519   20 f8 20    JSR &20f8
451c   ea          NOP 
451d   ea          NOP 
451e   a6 30       LDX &30
4520   20 59 2e    JSR &2e59
4523   a6 66       LDX &66
4525   a5 5f       LDA &5f
4527   d0 08       BNE   8       4531
4529   bd 50 06    LDA &0650,X
452c   10 03       BPL   3       4531
452e   20 36 2c    JSR &2c36
4531   a6 66       LDX &66
4533   4c 5e 27    JMP &275e
4536   a0 00       LDY #&00
4538   84 34       STY &34
453a   a2 08       LDX #&08
453c   b1 50 85    LDA (&8550,Y)
453f   2e 29 aa    ROL &aa29
4542   4a          LSR A
4543   85 2f       STA &2f
4545   a5 2e       LDA &2e
4547   29 55       AND &55
4549   0a          ASL A
454a   05 2f       ORA &2f
454c   48          PHA 
454d   c8          INY 
454e   ca          DEX 
454f   d0 eb       BNE -21       453c
4551   a2 08       LDX #&08
4553   a4 34       LDY &34
4555   68          PLA 
4556   91 50 c8    STA (&c850,Y)
4559   ca          DEX 
455a   d0 f9       BNE  -7       4555
455c   c0 80       CPY #&80
455e   d0 d8       BNE -40       4538
4560   60          RTS 
4561   00          BRK   
4562   00          BRK   
4563   00          BRK   
4564   bd 26 06    LDA &0626,X
4567   85 50       STA &50
4569   bd 32 06    LDA &0632,X
456c   29 07       AND &07
456e   85 52       STA &52
4570   bd 38 06    LDA &0638,X
4573   85 53       STA &53
4575   bd 3e 06    LDA &063e,X
4578   85 54       STA &54
457a   8a          TXA 
457b   4a          LSR A
457c   a8          TAY 
457d   a9 00       LDA #&00
457f   6a          ROR A
4580   aa          TAX 
4581   98          TYA 
4582   69 31       ADC #&31
4584   a8          TAY 
4585   a9 7f       LDA #&7f
4587   20 a7 08    JSR &08a7
458a   a6 5b       LDX &5b
458c   60          RTS 
458d   00          BRK   
458e   00          BRK   
458f   00          BRK   
4590   bd 38 06    LDA &0638,X
4593   85 31       STA &31
4595   bd 3e 06    LDA &063e,X
4598   85 32       STA &32
459a   bd 5c 06    LDA &065c,X
459d   10 1c       BPL  28       45bb
459f   bd 32 06    LDA &0632,X
45a2   29 07       AND &07
45a4   18          CLC 
45a5   7d 5c 06    ADC &065c,X
45a8   a8          TAY 
45a9   10 33       BPL  51       45de
45ab   29 07       AND &07
45ad   a8          TAY 
45ae   a5 31       LDA &31
45b0   e9 80       SBC #&80
45b2   85 31       STA &31
45b4   a5 32       LDA &32
45b6   e9 02       SBC #&02
45b8   4c dc 2c    JMP &2cdc
45bb   bd 32 06    LDA &0632,X
45be   29 07       AND &07
45c0   38          SEC 
45c1   7d 5c 06    ADC &065c,X
45c4   a8          TAY 
45c5   c0 08       CPY #&08
45c7   90 0f       BCC  15       45d8
45c9   29 07       AND &07
45cb   a8          TAY 
45cc   a5 31       LDA &31
45ce   69 7f       ADC #&7f
45d0   85 31       STA &31
45d2   a5 32       LDA &32
45d4   69 07       ADC #&07
45d6   d0 04       BNE   4       45dc
45d8   a5 32       LDA &32
45da   69 05       ADC #&05
45dc   85 32       STA &32
45de   a2 07       LDX #&07
45e0   18          CLC 
45e1   b1 31 30    LDA (&3031,Y)
45e4   0c          ???
45e5   98          TYA 
45e6   69 10       ADC #&10
45e8   a8          TAY 
45e9   ca          DEX 
45ea   d0 f5       BNE -11       45e1
45ec   a6 5b       LDX &5b
45ee   4c 03 2d    JMP &2d03
45f1   a6 5b       LDX &5b
45f3   bd 5c 06    LDA &065c,X
45f6   49 ff       EOR #&ff
45f8   9d 5c 06    STA &065c,X
45fb   bd 56 06    LDA &0656,X
45fe   49 ff       EOR #&ff
4600   9d 56 06    STA &0656,X
4603   bd 50 06    LDA &0650,X
4606   18          CLC 
4607   30 0e       BMI  14       4617
4609   bd 38 06    LDA &0638,X
460c   69 50       ADC #&50
460e   85 31       STA &31
4610   bd 3e 06    LDA &063e,X
4613   69 00       ADC #&00
4615   d0 0c       BNE  12       4623
4617   bd 38 06    LDA &0638,X
461a   e9 0f       SBC #&0f
461c   85 31       STA &31
461e   bd 3e 06    LDA &063e,X
4621   e9 00       SBC #&00
4623   a2 09       LDX #&09
4625   85 32       STA &32
4627   bd 32 06    LDA &0632,X
462a   29 06       AND &06
462c   a8          TAY 
462d   b1 31 30    LDA (&3031,Y)
4630   19 ca f0    ORA &f0ca,Y
4633   28          PLP 
4634   c8          INY 
4635   c8          INY 
4636   c0 08       CPY #&08
4638   90 f3       BCC -13       462d
463a   a0 00       LDY #&00
463c   a5 31       LDA &31
463e   69 7f       ADC #&7f
4640   85 31       STA &31
4642   a5 32       LDA &32
4644   69 02       ADC #&02
4646   85 32       STA &32
4648   d0 e3       BNE -29       462d
464a   a6 5b       LDX &5b
464c   bd 50 06    LDA &0650,X
464f   49 ff       EOR #&ff
4651   9d 50 06    STA &0650,X
4654   bd 4a 06    LDA &064a,X
4657   49 ff       EOR #&ff
4659   9d 4a 06    STA &064a,X
465c   60          RTS 
465d   00          BRK   
465e   04          ???
465f   02          ???
4660   fc          ???
4661   fe 78 84    INC &8478,X
4664   90 9c       BCC 100       4602
4666   a8          TAY 
4667   b4 86       LDY &86,X
4669   9e          ???
466a   00          BRK   
466b   00          BRK   
466c   bd 4a 06    LDA &064a,X
466f   e9 40       SBC #&40
4671   9d 4a 06    STA &064a,X
4674   bd 50 06    LDA &0650,X
4677   e9 00       SBC #&00
4679   9d 50 06    STA &0650,X
467c   60          RTS 
467d   bd 4a 06    LDA &064a,X
4680   69 40       ADC #&40
4682   9d 4a 06    STA &064a,X
4685   bd 50 06    LDA &0650,X
4688   69 00       ADC #&00
468a   9d 50 06    STA &0650,X
468d   60          RTS 
468e   bd 56 06    LDA &0656,X
4691   e9 40       SBC #&40
4693   9d 56 06    STA &0656,X
4696   bd 5c 06    LDA &065c,X
4699   e9 00       SBC #&00
469b   9d 5c 06    STA &065c,X
469e   60          RTS 
469f   bd 56 06    LDA &0656,X
46a2   69 40       ADC #&40
46a4   9d 56 06    STA &0656,X
46a7   bd 5c 06    LDA &065c,X
46aa   69 00       ADC #&00
46ac   9d 5c 06    STA &065c,X
46af   60          RTS 
46b0   25 80       AND &80
46b2   40          RTI 
46b3   55 50       EOR &50,X
46b5   60          RTS 
46b6   25 50       AND &50
46b8   75 00       ROR &00,X
46ba   a6 66       LDX &66
46bc   a6 67       LDX &67
46be   f8          SED 
46bf   b9 b0 2d    LDA &2db0,Y
46c2   18          CLC 
46c3   75 8a       ROR &8a,X
46c5   95 8a       STA &8a,X
46c7   90 10       BCC  16       46d9
46c9   a9 00       LDA #&00
46cb   ca          DEX 
46cc   75 8a       ROR &8a,X
46ce   95 8a       STA &8a,X
46d0   90 07       BCC   7       46d9
46d2   ca          DEX 
46d3   b5 8a       LDA &8a,X
46d5   69 00       ADC #&00
46d7   95 8a       STA &8a,X
46d9   d8          CLD 
46da   a9 1f       LDA #&1f
46dc   20 ee ff    JSR &ffee
46df   86 2e       STX &2e
46e1   a5 67       LDA &67
46e3   29 04       AND &04
46e5   f0 02       BEQ   2       46e9
46e7   a9 08       LDA #&08
46e9   18          CLC 
46ea   65 2e       ADC &2e
46ec   65 2e       ADC &2e
46ee   20 ee ff    JSR &ffee
46f1   a9 00       LDA #&00
46f3   20 ee ff    JSR &ffee
46f6   b5 8a       LDA &8a,X
46f8   48          PHA 
46f9   29 f0       AND &f0
46fb   4a          LSR A
46fc   4a          LSR A
46fd   4a          LSR A
46fe   4a          LSR A
46ff   69 30       ADC #&30
4701   20 ee ff    JSR &ffee
4704   68          PLA 
4705   29 0f       AND &0f
4707   69 30       ADC #&30
4709   20 ee ff    JSR &ffee
470c   e8          INX 
470d   e4 67       CPX &67
470f   90 e5       BCC -27       46f6
4711   f0 e3       BEQ -29       46f6
4713   60          RTS 
4714   a5 58       LDA &58                      ; Random number routine?
4716   29 48       AND &48
4718   69 38       ADC #&38
471a   0a          ASL A
471b   0a          ASL A
471c   26 5a       ROL &5a
471e   26 59       ROL &59
4720   26 58       ROL &58                      ; New random in &58
4722   60          RTS 
4723   00          BRK   
4724   a9 00       LDA #&00
4726   85 2f       STA &2f
4728   a5 50       LDA &50
472a   29 fe       AND &fe
472c   0a          ASL A
472d   26 2f       ROL &2f
472f   0a          ASL A
4730   26 2f       ROL &2f
4732   85 53       STA &53
4734   a5 51       LDA &51
4736   4a          LSR A
4737   4a          LSR A
4738   29 fe       AND &fe
473a   85 52       STA &52
473c   4a          LSR A
473d   4a          LSR A
473e   85 54       STA &54
4740   a9 00       LDA #&00
4742   6a          ROR A
4743   65 53       ADC &53
4745   85 53       STA &53
4747   a5 54       LDA &54
4749   65 2f       ADC &2f
474b   69 40       ADC #&40
474d   65 52       ADC &52
474f   85 54       STA &54
4751   a5 51       LDA &51
4753   29 07       AND &07
4755   85 52       STA &52
4757   60          RTS 
4758   60          RTS 
4759   8e 6a 2e    STX &2e6a
475c   8c 6b 2e    STY &2e6b
475f   a2 00       LDX #&00
4761   8d 74 2e    STA &2e74
4764   8d 81 2e    STA &2e81
4767   a0 00       LDY #&00
4769   bd c0 37    LDA &37c0,X
476c   85 30       STA &30
476e   86 35       STX &35
4770   29 0f       AND &0f
4772   aa          TAX 
4773   bd 50 0b    LDA &0b50,X
4776   91 53 c8    STA (&c853,Y)
4779   a5 30       LDA &30
477b   4a          LSR A
477c   4a          LSR A
477d   4a          LSR A
477e   4a          LSR A
477f   aa          TAX 
4780   bd 50 0b    LDA &0b50,X
4783   91 53 c8    STA (&c853,Y)
4786   a6 35       LDX &35
4788   e8          INX 
4789   e4 55       CPX &55
478b   90 dc       BCC -36       4769
478d   60          RTS 
478e   00          BRK   
478f   00          BRK   
4790   8e b5 2e    STX &2eb5
4793   8c b6 2e    STY &2eb6
4796   aa          TAX 
4797   a9 a1       LDA #&a1
4799   38          SEC 
479a   e5 50       SBC &50
479c   4a          LSR A
479d   85 50       STA &50
479f   a4 52       LDY &52
47a1   a5 53       LDA &53
47a3   85 31       STA &31
47a5   a5 54       LDA &54
47a7   85 32       STA &32
47a9   84 2f       STY &2f
47ab   a5 50       LDA &50
47ad   85 33       STA &33
47af   a9 08       LDA #&08
47b1   85 34       STA &34
47b3   18          CLC 
47b4   bd 00 09    LDA &0900,X
47b7   f0 07       BEQ   7       47c0
47b9   51 31 91    EOR (&9131,Y)
47bc   31 6c 56    AND (&566c,Y)
47bf   00          BRK   
47c0   c6 34       DEC &34
47c2   f0 17       BEQ  23       47db
47c4   ca          DEX 
47c5   98          TYA 
47c6   69 08       ADC #&08
47c8   a8          TAY 
47c9   c6 33       DEC &33
47cb   d0 e7       BNE -25       47b4
47cd   a5 31       LDA &31
47cf   e9 7f       SBC #&7f
47d1   85 31       STA &31
47d3   a5 32       LDA &32
47d5   e9 02       SBC #&02
47d7   85 32       STA &32
47d9   d0 d8       BNE -40       47b3
47db   8a          TXA 
47dc   f0 af       BEQ -81       478d
47de   ca          DEX 
47df   e6 2f       INC &2f
47e1   a5 2f       LDA &2f
47e3   a8          TAY 
47e4   29 07       AND &07
47e6   d0 b9       BNE -71       47a1
47e8   a5 53       LDA &53
47ea   69 78       ADC #&78
47ec   85 53       STA &53
47ee   85 31       STA &31
47f0   a5 54       LDA &54
47f2   69 02       ADC #&02
47f4   85 54       STA &54
47f6   d0 af       BNE -81       47a7
47f8   c5 63       CMP &63
47fa   90 c4       BCC -60       47c0
47fc   4c 0d 2b    JMP &2b0d
47ff   00          BRK   
4800   85 50       STA &50
4802   a0 00       LDY #&00
4804   a2 00       LDX #&00
4806   bd e0 2f    LDA &2fe0,X                  ; Initialise high score names, 3 bytes of score, followed by name
4809   99 00 05    STA &0500,Y
480c   c8          INY 
480d   e8          INX 
480e   e0 20       CPX #&20
4810   90 f4       BCC -12       4806
4812   98          TYA 
4813   d0 ef       BNE -17       4804
4815   a2 49       LDX #&49
4817   bd 90 2f    LDA &2f90,X
481a   95 50       STA &50,X
481c   ca          DEX 
481d   10 f8       BPL  -8       4817
481f   a9 0a       LDA #&0a
4821   a2 00       LDX #&00
4823   20 f4 ff    JSR &fff4                    ; Set flash duration to 0
4826   a9 09       LDA #&09
4828   a2 01       LDX #&01
482a   20 f4 ff    JSR &fff4                    ; Set flash duration to 1
482d   a0 00       LDY #&00
482f   a9 c8       LDA #&c8
4831   a2 03       LDX #&03
4833   20 f4 ff    JSR &fff4                    ; *FX 200,3
4836   a9 00       LDA #&00
4838   85 20       STA &20                      ; 0 = Single player game
483a   85 21       STA &21                      ; 0 = Keyboard control
483c   85 22       STA &22
483e   a9 8c       LDA #&8c
4840   8d 0a 02    STA &020a
4843   a9 24       LDA #&24
4845   8d 0b 02    STA &020b                    ; Set up OSByte indirection vector
4848   a9 0b       LDA #&0b
484a   a2 00       LDX #&00
484c   20 f4 ff    JSR &fff4                    ; Keyboard auto-repeat
484f   a9 0f       LDA #&0f
4851   a2 00       LDX #&00
4853   20 f4 ff    JSR &fff4                    ; *FX 15,0
4856   a2 04       LDX #&04
4858   a0 00       LDY #&00
485a   a9 0d       LDA #&0d
485c   20 f4 ff    JSR &fff4                    ; Disable start of vsync event
485f   a9 a6       LDA #&a6
4861   8d 20 02    STA &0220
4864   a9 ff       LDA #&ff
4866   8d 21 02    STA &0221                    ; Set event vector
4869   a9 04       LDA #&04
486b   a2 01       LDX #&01
486d   a0 00       LDY #&00
486f   20 f4 ff    JSR &fff4                    ; Disable cursor editing
4872   a9 90       LDA #&90
4874   a2 00       LDX #&00
4876   a0 01       LDY #&01
4878   20 f4 ff    JSR &fff4                    ; *TV 0,1
487b   a0 00       LDY #&00
487d   a2 00       LDX #&00
487f   8a          TXA 
4880   9d 00 06    STA &0600,X
4883   e8          INX 
4884   d0 fa       BNE  -6       4880
4886   20 60 30    JSR &3060
4889   4c 5c 12    JMP &125c
488c   0b          ???
488d   91 53 c8    STA (&c853,Y)
4890   22          ???
4891   7f          ???
4892   00          BRK   
4893   38          SEC 
4894   4b          ???
4895   30 c0       BMI -64       4857
4897   2e c3 2a    ROL &2ac3
489a   45 06       EOR &06
489c   78          SEI 
489d   18          CLC 
489e   00          BRK   
489f   ff          ???
48a0   02          ???
48a1   00          BRK   
48a2   ff          ???
48a3   ef          ???
48a4   00          BRK   
48a5   00          BRK   
48a6   00          BRK   
48a7   05 04       ORA &04
48a9   a0 5c       LDY #&5c
48ab   ff          ???
48ac   00          BRK   
48ad   01 20 c3    ORA X,&c320
48b0   00          BRK   
48b1   60          RTS 
48b2   49 ff       EOR #&ff
48b4   00          BRK   
48b5   80          ???
48b6   40          RTI 
48b7   15 fe       ORA &fe,X
48b9   00          BRK   
48ba   ff          ???
48bb   01 7f 02    ORA X,&027f
48be   78          SEI 
48bf   24 e0       BIT &e0
48c1   4b          ???
48c2   00          BRK   
48c3   ff          ???
48c4   b0 50       BCS  80       4916
48c6   24 80       BIT &80
48c8   00          BRK   
48c9   00          BRK   
48ca   00          BRK   
48cb   79 95 01    ADC &0195,Y
48ce   19 95 05    ORA &0595,Y
48d1   06 ff       ASL &ff
48d3   00          BRK   
48d4   00          BRK   
48d5   33          ???
48d6   00          BRK   
48d7   00          BRK   
48d8   04          ???
48d9   00          BRK   
48da   ff          ???
48db   ff          ???
48dc   ff          ???
48dd   ff          ???
48de   00          BRK   
48df   ff          ???
48e0   00          BRK   
48e1   50 00       BVC   0       48e3
48e3   55 6c       EOR &6c,X
48e5   74          ???
48e6   69 6d       ADC #&6d
48e8   61 74 65    ADC X,&6574
48eb   20 50 6c    JSR &6c50
48ee   61 79 20    ADC X,&2079
48f1   74          ???
48f2   68          PLA 
48f3   65 20       ADC &20
48f5   47          ???
48f6   61 6d 65    ADC X,&656d
48f9   20 20 20    JSR &2020
48fc   20 20 0d    JSR &0d20
48ff   0d 4a 45    ORA &454a
4902   54          ???
4903   2d 50 41    AND &4150
4906   43          ???
4907   20 28 43    JSR &4328
490a   29 20       AND &20
490c   31 39 38    AND (&3839,Y)
490f   33          ???
4910   20 41 53    JSR &5341
4913   48          PHA 
4914   42          ???
4915   59 20 43    EOR &4320,Y
4918   4f          ???
4919   4d 50 55    EOR &5550
491c   54          ???
491d   45 52       EOR &52
491f   53          ???
4920   20 26 0d    JSR &0d26
4923   47          ???
4924   52          ???
4925   41 50 48    EOR X,&4850
4928   49 43       EOR #&43
492a   53          ???
492b   20 4c 54    JSR &544c
492e   44          ???
492f   0d b0 01    ORA &01b0
4932   60          RTS 
4933   a2 00       LDX #&00
4935   bd 00 01    LDA &0100,X
4938   20 e3 ff    JSR &ffe3
493b   e8          INX 
493c   c9 0d       CMP #&0d
493e   d0 f5       BNE -11       4935
4940   20 e3 ff    JSR &ffe3
4943   bd 00 01    LDA &0100,X
4946   20 e3 ff    JSR &ffe3
4949   e8          INX 
494a   c9 0d       CMP #&0d
494c   d0 f5       BNE -11       4943
494e   4c e3 ff    JMP &ffe3
4951   9b          ???
4952   33          ???
4953   33          ???
4954   33          ???
4955   33          ???
4956   67          ???
4957   00          BRK   
4958   00          BRK   
4959   22          ???
495a   9b          ???
495b   67          ???
495c   9b          ???
495d   67          ???
495e   11 00 a2    ORA (&a200,Y)
4961   00          BRK   
4962   bd 00 30    LDA &3000,X
4965   9d 00 01    STA &0100,X
4968   e8          INX 
4969   e0 55       CPX #&55
496b   90 f5       BCC -11       4962
496d   a9 00       LDA #&00
496f   8d 87 02    STA &0287
4972   a9 30       LDA #&30
4974   8d 88 02    STA &0288
4977   a9 01       LDA #&01
4979   8d 89 02    STA &0289
497c   4c 80 33    JMP &3380
497f   00          BRK   
4980   43          ???
4981   6f          ???
4982   6e 67 72    ROR &7267
4985   61 74 75    ADC X,&7574
4988   6c 61 74    JMP (&7461)
498b   69 6f       ADC #&6f
498d   6e 73 20    ROR &2073
4990   79 6f 75    ADC &756f,Y
4993   20 68 61    JSR &6168
4996   76 65       ROR &65,X
4998   20 6a 75    JSR &756a
499b   73          ???
499c   74          ???
499d   20 62 72    JSR &7262
49a0   6f          ???
49a1   6b          ???
49a2   65 6e       ADC &6e
49a4   20 69 6e    JSR &6e69
49a7   74          ???
49a8   6f          ???
49a9   20 74 68    JSR &6874
49ac   65 20       ADC &20
49ae   70 72       BVS 114       4a22
49b0   6f          ???
49b1   67          ???
49b2   72          ???
49b3   61 6d 20    ADC X,&206d
49b6   20 20 20    JSR &2020
49b9   20 20 20    JSR &2020
49bc   20 20 20    JSR &2020
49bf   20 20 20    JSR &2020
49c2   20 20 20    JSR &2020
49c5   20 20 20    JSR &2020
49c8   20 20 20    JSR &2020
49cb   20 20 20    JSR &2020
49ce   20 20 20    JSR &2020
49d1   20 20 20    JSR &2020
49d4   20 20 20    JSR &2020
49d7   20 20 20    JSR &2020
49da   20 20 20    JSR &2020
49dd   20 20 20    JSR &2020
49e0   20 20 20    JSR &2020
49e3   20 20 20    JSR &2020
49e6   20 20 20    JSR &2020
49e9   20 20 20    JSR &2020
49ec   20 20 20    JSR &2020
49ef   20 20 20    JSR &2020
49f2   20 20 20    JSR &2020
49f5   20 20 20    JSR &2020
49f8   20 20 20    JSR &2020
49fb   20 20 20    JSR &2020
49fe   20 20 8d    JSR &8d20
4a01   84 9d       STY &9d
4a03   83          ???
4a04   51 75 69    EOR (&6975,Y)
4a07   74          ???
4a08   20 67 61    JSR &6167
4a0b   6d 65 20    ADC &2065
4a0e   70 6c       BVS 108       4a7c
4a10   61 79 65    ADC X,&6579
4a13   72          ???
4a14   20 09 20    JSR &2009
4a17   2e 2e 2e    ROL &2e2e
4a1a   2e 20 28    ROL &2820
4a1d   79 2f 6e    ADC &6e2f,Y
4a20   29 20       AND &20
4a22   3f          ???
4a23   87          ???
4a24   0d 59 65    ORA &6559
4a27   73          ???
4a28   0d 4e 6f    ORA &6f4e
4a2b   0d 31 0d    ORA &0d31
4a2e   32          ???
4a2f   0d a5 67    ORA &67a5
4a32   29 01       AND &01
4a34   85 08       STA &08
4a36   aa          TAX 
4a37   b5 88       LDA &88,X
4a39   d0 01       BNE   1       4a3c
4a3b   60          RTS 
4a3c   a9 16       LDA #&16
4a3e   20 ee ff    JSR &ffee
4a41   a9 07       LDA #&07                     ; Mode 7 for "Quit game (Y/N)?"
4a43   20 ee ff    JSR &ffee
4a46   a5 08       LDA &08
4a48   0a          ASL A
4a49   69 2c       ADC #&2c
4a4b   aa          TAX 
4a4c   a0 15       LDY #&15
4a4e   20 d0 04    JSR &04d0
4a51   a2 00       LDX #&00
4a53   a0 00       LDY #&00
4a55   20 d0 04    JSR &04d0
4a58   a9 bb       LDA #&bb                     ; "Y"
4a5a   20 0c 17    JSR &170c                    ; Scan for key
4a5d   f0 0a       BEQ  10       4a69
4a5f   a6 08       LDX &08
4a61   a9 00       LDA #&00
4a63   95 88       STA &88,X
4a65   a2 25       LDX #&25
4a67   d0 09       BNE   9       4a72
4a69   a9 aa       LDA #&aa                     ; "N"
4a6b   20 0c 17    JSR &170c                    ; Scan for key
4a6e   f0 e8       BEQ -24       4a58           ; If not pressed, loop back round for another key
4a70   a2 29       LDX #&29                     ; .. Otherwise, back to game
4a72   a0 24       LDY #&24
4a74   20 d0 04    JSR &04d0
4a77   a9 00       LDA #&00
4a79   4c 10 0b    JMP &0b10
4a7c   0b          ???
4a7d   4c f4 ff    JMP &fff4
4a80   8a          TXA 
4a81   48          PHA 
4a82   18          CLC 
4a83   20 d8 04    JSR &04d8
4a86   68          PLA 
4a87   aa          TAX 
4a88   08          PHP 
4a89   a9 1f       LDA #&1f
4a8b   20 ee ff    JSR &ffee
4a8e   98          TYA 
4a8f   20 ee ff    JSR &ffee
4a92   a9 0c       LDA #&0c
4a94   28          PLP 
4a95   69 00       ADC #&00
4a97   20 ee ff    JSR &ffee
4a9a   bd 58 01    LDA &0158,X
4a9d   c9 0d       CMP #&0d
4a9f   f0 9a       BEQ 102       4a3b
4aa1   e8          INX 
4aa2   20 ee ff    JSR &ffee
4aa5   d0 f3       BNE -13       4a9a
4aa7   a2 00       LDX #&00
4aa9   bd 00 31    LDA &3100,X
4aac   9d 58 01    STA &0158,X
4aaf   e8          INX 
4ab0   e0 30       CPX #&30
4ab2   d0 f5       BNE -11       4aa9
4ab4   a2 00       LDX #&00
4ab6   bd 30 31    LDA &3130,X
4ab9   9d 80 04    STA &0480,X
4abc   e8          INX 
4abd   e0 80       CPX #&80
4abf   d0 f5       BNE -11       4ab6
4ac1   4c 10 32    JMP &3210
4ac4   20 6d 61    JSR &616d
4ac7   6b          ???
4ac8   20 20 20    JSR &2020
4acb   20 20 20    JSR &2020
4ace   20 20 20    JSR &2020
4ad1   20 20 20    JSR &2020
4ad4   20 20 20    JSR &2020
4ad7   20 20 20    JSR &2020
4ada   20 20 20    JSR &2020
4add   20 20 20    JSR &2020
4ae0   20 20 20    JSR &2020
4ae3   20 20 20    JSR &2020
4ae6   20 20 20    JSR &2020
4ae9   20 20 20    JSR &2020
4aec   20 20 20    JSR &2020
4aef   20 20 20    JSR &2020
4af2   20 20 20    JSR &2020
4af5   20 20 20    JSR &2020
4af8   20 20 20    JSR &2020
4afb   20 20 20    JSR &2020
4afe   20 20 20    JSR &2020
4b01   e6 21       INC &21
4b03   a9 8f       LDA #&8f
4b05   20 0c 17    JSR &170c
4b08   d0 03       BNE   3       4b0d
4b0a   4c d2 18    JMP &18d2
4b0d   4c 80 04    JMP &0480
4b10   a2 00       LDX #&00
4b12   bd 00 32    LDA &3200,X
4b15   9d 88 01    STA &0188,X
4b18   e8          INX 
4b19   e0 10       CPX #&10
4b1b   d0 f5       BNE -11       4b12
4b1d   60          RTS 
4b1e   00          BRK   
4b1f   00          BRK   
4b20   54          ???
4b21   68          PLA 
4b22   61 6e 6b    ADC X,&6b6e
4b25   73          ???
4b26   20 64 75    JSR &7564
4b29   65 20       ADC &20
4b2b   74          ???
4b2c   6f          ???
4b2d   20 57 69    JSR &6957
4b30   6c 6c 69    JMP (&696c)
4b33   61 6d 2c    ADC X,&2c6d
4b36   47          ???
4b37   77          ???
4b38   79 6e 2c    ADC &2c6e,Y
4b3b   41 6c 61    EOR X,&616c
4b3e   6e 2c 47    ROR &472c
4b41   6c 65 6e    JMP (&6e65)
4b44   6e 2c 53    ROR &532c
4b47   61 63 68    ADC X,&6863
4b4a   61 20 74    ADC X,&7420
4b4d   68          PLA 
4b4e   65 20       ADC &20
4b50   70 69       BVS 105       4bbb
4b52   72          ???
4b53   61 74 65    ADC X,&6574
4b56   2c 4c 61    BIT &614c
4b59   73          ???
4b5a   73          ???
4b5b   69 65       ADC #&65
4b5d   20 74 68    JSR &6874
4b60   65 20       ADC &20
4b62   64          ???
4b63   6f          ???
4b64   67          ???
4b65   2c 74 6f    BIT &6f74
4b68   6d 26 73    ADC &7326
4b6b   63          ???
4b6c   72          ???
4b6d   61 62 62    ADC X,&6262
4b70   6c 65 26    JMP (&2665)
4b73   74          ???
4b74   68          PLA 
4b75   65 20       ADC &20
4b77   6c 69 74    JMP (&7469)
4b7a   74          ???
4b7b   6c 65 20    JMP (&2065)
4b7e   70 75       BVS 117       4bf5
4b80   73          ???
4b81   73          ???
4b82   3a          ???
4b83   2d 74 68    AND &6874
4b86   65 20       ADC &20
4b88   63          ???
4b89   61 74 73    ADC X,&7374
4b8c   2c 4d 75    BIT &754d
4b8f   6d 2c 44    ADC &442c
4b92   61 64 2c    ADC X,&2c64
4b95   4c 6c 6f    JMP &6f6c
4b98   79 64 2c    ADC &2c64,Y
4b9b   41 66 72    EOR X,&7266
4b9e   69 61       ADC #&61
4ba0   6e 6e 65    ROR &656e
4ba3   2c 4d 72    BIT &724d
4ba6   73          ???
4ba7   20 44 2c    JSR &2c44
4baa   4d 72 20    EOR &2072
4bad   42          ???
4bae   75 72       ROR &72,X
4bb0   72          ???
4bb1   6f          ???
4bb2   75 67       ROR &67,X
4bb4   68          PLA 
4bb5   20 26 47    JSR &4726
4bb8   72          ???
4bb9   65 65       ADC &65
4bbb   6e 2c 4d    ROR &4d2c
4bbe   65 69       ADC &69
4bc0   72          ???
4bc1   69 6f       ADC #&6f
4bc3   6e 2c 4a    ROR &4a2c
4bc6   6f          ???
4bc7   68          PLA 
4bc8   6e 20 6c    ROR &6c20
4bcb   65 65       ADC &65
4bcd   2c 52 61    BIT &6152
4bd0   63          ???
4bd1   68          PLA 
4bd2   65 6c       ADC &6c
4bd4   20 45 76    JSR &7645
4bd7   61 6e 73    ADC X,&736e
4bda   2c 4a 6f    BIT &6f4a
4bdd   68          PLA 
4bde   6e 61 74    ROR &7461
4be1   68          PLA 
4be2   6f          ???
4be3   6e 2c 54    ROR &542c
4be6   69 6d       ADC #&6d
4be8   20 53 74    JSR &7453
4beb   61 6d 70    ADC X,&706d
4bee   65 72       ADC &72
4bf0   73          ???
4bf1   2c 53 75    BIT &7553
4bf4   65 0d       ADC &0d
4bf6   0d 00 2c    ORA &2c00
4bf9   44          ???
4bfa   61 69 20    ADC X,&2069
4bfd   57          ???
4bfe   61 74 73    ADC X,&7374
4c01   2c 48 61    BIT &6148
4c04   72          ???
4c05   72          ???
4c06   79 2c 42    ADC &422c,Y
4c09   61 6c 6c    ADC X,&6c6c
4c0c   61 72 64    ADC X,&6472
4c0f   2c 44 20    BIT &2044
4c12   73          ???
4c13   68          PLA 
4c14   61 6e 64    ADC X,&646e
4c17   79 2c 42    ADC &422c,Y
4c1a   6f          ???
4c1b   6f          ???
4c1c   74          ???
4c1d   65 2c       ADC &2c
4c1f   48          PHA 
4c20   61 7a 65    ADC X,&657a
4c23   6c 2c 4d    JMP (&4d2c)
4c26   72          ???
4c27   20 41 6e    JSR &6e41
4c2a   67          ???
4c2b   72          ???
4c2c   79 20 26    ADC &2620,Y
4c2f   53          ???
4c30   74          ???
4c31   65 76       ADC &76
4c33   65 20       ADC &20
4c35   77          ???
4c36   72          ???
4c37   69 67       ADC #&67
4c39   68          PLA 
4c3a   74          ???
4c3b   20 61 6e    JSR &6e61
4c3e   64          ???
4c3f   20 74 68    JSR &6874
4c42   65 20       ADC &20
4c44   74          ???
4c45   68          PLA 
4c46   75 67       ROR &67,X
4c48   2c 61 6e    BIT &6e61
4c4b   64          ???
4c4c   20 66 69    JSR &6966
4c4f   6e 61 6c    ROR &6c61
4c52   6c 79 20    JMP (&2079)
4c55   44          ???
4c56   61 76 69    ADC X,&6976
4c59   64          ???
4c5a   20 43 6f    JSR &6f43
4c5d   6f          ???
4c5e   6b          ???
4c5f   65 26       ADC &26
4c61   44          ???
4c62   61 76 65    ADC X,&6576
4c65   20 50 65    JSR &6550
4c68   6e 6e 79    ROR &796e
4c6b   20 20 20    JSR &2020
4c6e   20 20 20    JSR &2020
4c71   20 20 20    JSR &2020
4c74   20 20 20    JSR &2020
4c77   20 06 05    JSR &0506
4c7a   04          ???
4c7b   05 04       ORA &04
4c7d   06 06       ASL &06
4c7f   04          ???
4c80   a0 07       LDY #&07
4c82   b9 78 33    LDA &3378,Y
4c85   99 00 00    STA &0000,Y
4c88   88          DEY 
4c89   10 f7       BPL  -9       4c82
4c8b   c8          INY 
4c8c   a2 00       LDX #&00
4c8e   a9 dc       LDA #&dc
4c90   20 f4 ff    JSR &fff4
4c93   a9 e1       LDA #&e1
4c95   a2 80       LDX #&80
4c97   a0 00       LDY #&00
4c99   20 f4 ff    JSR &fff4
4c9c   4c a7 31    JMP &31a7
4c9f   00          BRK   
4ca0   82          ???
4ca1   20 30 30    JSR &3030
4ca4   30 30       BMI  48       4cd6
4ca6   41 41 00    EOR X,&0041
4ca9   61 30 30    ADC X,&3030
4cac   30 30       BMI  48       4cde
4cae   92          ???
4caf   00          BRK   
4cb0   c3          ???
4cb1   30 92       BMI 110       4c45
4cb3   61 92 61    ADC X,&6192
4cb6   30 41       BMI  65       4cf9
4cb8   82          ???
4cb9   30 6b       BMI 107       4d26
4cbb   97          ???
4cbc   6b          ???
4cbd   97          ???
4cbe   30 c3       BMI -61       4c83
4cc0   00          BRK   
4cc1   30 6b       BMI 107       4d2e
4cc3   97          ???
4cc4   6b          ???
4cc5   97          ???
4cc6   30 00       BMI   0       4cc8
4cc8   c3          ???
4cc9   30 92       BMI 110       4c5d
4ccb   61 92 61    ADC X,&6192
4cce   30 c3       BMI -61       4c93
4cd0   82          ???
4cd1   30 30       BMI  48       4d03
4cd3   30 30       BMI  48       4d05
4cd5   30 92       BMI 110       4c69
4cd7   00          BRK   
4cd8   c3          ???
4cd9   61 30 30    ADC X,&3030
4cdc   30 30       BMI  48       4d0e
4cde   10 41       BPL  65       4d21
4ce0   82          ???
4ce1   82          ???
4ce2   82          ???
4ce3   61 c3 82    ADC X,&82c3
4ce6   82          ???
4ce7   41 00 41    EOR X,&4100
4cea   41 82 82    EOR X,&8282
4ced   82          ???
4cee   41 00 00    EOR X,&0000
4cf1   00          BRK   
4cf2   00          BRK   
4cf3   41 82 00    EOR X,&0082
4cf6   41 00 00    EOR X,&0000
4cf9   00          BRK   
4cfa   00          BRK   
4cfb   00          BRK   
4cfc   00          BRK   
4cfd   00          BRK   
4cfe   00          BRK   
4cff   00          BRK   
4d00   00          BRK   
4d01   00          BRK   
4d02   08          PHP 
4d03   0c          ???
4d04   24 33       BIT &33
4d06   11 00 11    ORA (&1100,Y)
4d09   00          BRK   
4d0a   08          PHP 
4d0b   0c          ???
4d0c   04          ???
4d0d   33          ???
4d0e   33          ???
4d0f   00          BRK   
4d10   36 11       ROL &11,X
4d12   0c          ???
4d13   0c          ???
4d14   04          ???
4d15   33          ???
4d16   32          ???
4d17   00          BRK   
4d18   3c          ???
4d19   36 0f       ROL &0f,X
4d1b   0f          ???
4d1c   0c          ???
4d1d   22          ???
4d1e   33          ???
4d1f   00          BRK   
4d20   36 11       ROL &11,X
4d22   0d 0f 0d    ORA &0d0f
4d25   22          ???
4d26   32          ???
4d27   00          BRK   
4d28   11 00 0c    ORA (&0c00,Y)
4d2b   0e 0d 22    ASL &220d
4d2e   33          ???
4d2f   00          BRK   
4d30   00          BRK   
4d31   00          BRK   
4d32   08          PHP 
4d33   0c          ???
4d34   0d 32 32    ORA &3232
4d37   00          BRK   
4d38   00          BRK   
4d39   00          BRK   
4d3a   00          BRK   
4d3b   0c          ???
4d3c   0c          ???
4d3d   22          ???
4d3e   33          ???
4d3f   00          BRK   
4d40   00          BRK   
4d41   00          BRK   
4d42   00          BRK   
4d43   0c          ???
4d44   04          ???
4d45   00          BRK   
4d46   33          ???
4d47   00          BRK   
4d48   00          BRK   
4d49   00          BRK   
4d4a   00          BRK   
4d4b   0f          ???
4d4c   05 00       ORA &00
4d4e   36 00       ROL &00,X
4d50   00          BRK   
4d51   00          BRK   
4d52   20 30 0f    JSR &0f30
4d55   00          BRK   
4d56   14          ???
4d57   00          BRK   
4d58   00          BRK   
4d59   00          BRK   
4d5a   30 30       BMI  48       4d8c
4d5c   1a          ???
4d5d   05 14       ORA &14
4d5f   00          BRK   
4d60   00          BRK   
4d61   00          BRK   
4d62   30 30       BMI  48       4d94
4d64   1a          ???
4d65   05 14       ORA &14
4d67   00          BRK   
4d68   00          BRK   
4d69   00          BRK   
4d6a   30 30       BMI  48       4d9c
4d6c   1a          ???
4d6d   05 14       ORA &14
4d6f   00          BRK   
4d70   00          BRK   
4d71   00          BRK   
4d72   20 30 0f    JSR &0f30
4d75   00          BRK   
4d76   14          ???
4d77   00          BRK   
4d78   00          BRK   
4d79   00          BRK   
4d7a   00          BRK   
4d7b   0f          ???
4d7c   05 00       ORA &00
4d7e   00          BRK   
4d7f   00          BRK   
4d80   00          BRK   
4d81   22          ???
4d82   33          ???
4d83   18          CLC 
4d84   0c          ???
4d85   04          ???
4d86   00          BRK   
4d87   00          BRK   
4d88   00          BRK   
4d89   33          ???
4d8a   33          ???
4d8b   08          PHP 
4d8c   0c          ???
4d8d   04          ???
4d8e   00          BRK   
4d8f   22          ???
4d90   00          BRK   
4d91   31 33 08    AND (&0833,Y)
4d94   0c          ???
4d95   0c          ???
4d96   22          ???
4d97   39 00 33    AND &3300,Y
4d9a   11 0c 0f    ORA (&0f0c,Y)
4d9d   0f          ???
4d9e   39 3c 00    AND &003c,Y
4da1   31 11 0e    AND (&0e11,Y)
4da4   0f          ???
4da5   0e 22 39    ASL &3922
4da8   00          BRK   
4da9   33          ???
4daa   11 0e 0d    ORA (&0d0e,Y)
4dad   0c          ???
4dae   00          BRK   
4daf   22          ???
4db0   00          BRK   
4db1   31 31 0e    AND (&0e31,Y)
4db4   0c          ???
4db5   04          ???
4db6   00          BRK   
4db7   00          BRK   
4db8   00          BRK   
4db9   33          ???
4dba   11 0c 0c    ORA (&0c0c,Y)
4dbd   00          BRK   
4dbe   00          BRK   
4dbf   00          BRK   
4dc0   00          BRK   
4dc1   33          ???
4dc2   00          BRK   
4dc3   08          PHP 
4dc4   0c          ???
4dc5   00          BRK   
4dc6   00          BRK   
4dc7   00          BRK   
4dc8   00          BRK   
4dc9   39 00 0a    AND &0a00,Y
4dcc   0f          ???
4dcd   00          BRK   
4dce   00          BRK   
4dcf   00          BRK   
4dd0   00          BRK   
4dd1   28          PLP 
4dd2   00          BRK   
4dd3   0f          ???
4dd4   30 10       BMI  16       4de6
4dd6   00          BRK   
4dd7   00          BRK   
4dd8   00          BRK   
4dd9   28          PLP 
4dda   0a          ASL A
4ddb   25 30       AND &30
4ddd   30 00       BMI   0       4ddf
4ddf   00          BRK   
4de0   00          BRK   
4de1   28          PLP 
4de2   0a          ASL A
4de3   25 30       AND &30
4de5   30 00       BMI   0       4de7
4de7   00          BRK   
4de8   00          BRK   
4de9   28          PLP 
4dea   0a          ASL A
4deb   25 30       AND &30
4ded   30 00       BMI   0       4def
4def   00          BRK   
4df0   00          BRK   
4df1   28          PLP 
4df2   00          BRK   
4df3   0f          ???
4df4   30 10       BMI  16       4e06
4df6   00          BRK   
4df7   00          BRK   
4df8   00          BRK   
4df9   00          BRK   
4dfa   00          BRK   
4dfb   0a          ASL A
4dfc   0f          ???
4dfd   00          BRK   
4dfe   00          BRK   
4dff   00          BRK   
4e00   00          BRK   
4e01   00          BRK   
4e02   00          BRK   
4e03   02          ???
4e04   03          ???
4e05   01 00 00    ORA X,&0000
4e08   00          BRK   
4e09   00          BRK   
4e0a   00          BRK   
4e0b   03          ???
4e0c   03          ???
4e0d   03          ???
4e0e   00          BRK   
4e0f   00          BRK   
4e10   00          BRK   
4e11   00          BRK   
4e12   00          BRK   
4e13   03          ???
4e14   0f          ???
4e15   03          ???
4e16   01 00 00    ORA X,&0000
4e19   00          BRK   
4e1a   02          ???
4e1b   03          ???
4e1c   0f          ???
4e1d   07          ???
4e1e   03          ???
4e1f   00          BRK   
4e20   00          BRK   
4e21   00          BRK   
4e22   02          ???
4e23   0b          ???
4e24   2f          ???
4e25   0f          ???
4e26   03          ???
4e27   00          BRK   
4e28   00          BRK   
4e29   00          BRK   
4e2a   03          ???
4e2b   0f          ???
4e2c   3f          ???
4e2d   1f          ???
4e2e   03          ???
4e2f   01 00 00    ORA X,&0000
4e32   03          ???
4e33   2f          ???
4e34   3f          ???
4e35   3f          ???
4e36   07          ???
4e37   01 00 02    ORA X,&0200
4e3a   0b          ???
4e3b   2f          ???
4e3c   3f          ???
4e3d   3f          ???
4e3e   07          ???
4e3f   01 00 03    ORA X,&0300
4e42   0f          ???
4e43   3f          ???
4e44   3c          ???
4e45   3f          ???
4e46   07          ???
4e47   01 00 03    ORA X,&0300
4e4a   0f          ???
4e4b   3d 3c 3e    AND &3e3c,X
4e4e   0f          ???
4e4f   03          ???
4e50   02          ???
4e51   0b          ???
4e52   2f          ???
4e53   3d 33 3e    AND &3e33,X
4e56   1f          ???
4e57   03          ???
4e58   02          ???
4e59   0b          ???
4e5a   2f          ???
4e5b   3c          ???
4e5c   33          ???
4e5d   39 1f 03    AND &031f,Y
4e60   00          BRK   
4e61   0b          ???
4e62   2f          ???
4e63   36 33       ROL &33,X
4e65   3e 0f 01    ROL &010f,X
4e68   00          BRK   
4e69   03          ???
4e6a   2f          ???
4e6b   36 33       ROL &33,X
4e6d   3e 07 01    ROL &0107,X
4e70   00          BRK   
4e71   0b          ???
4e72   2f          ???
4e73   33          ???
4e74   33          ???
4e75   3b          ???
4e76   07          ???
4e77   00          BRK   
4e78   02          ???
4e79   03          ???
4e7a   17          ???
4e7b   13          ???
4e7c   13          ???
4e7d   13          ???
4e7e   07          ???
4e7f   01 00 00    ORA X,&0000
4e82   02          ???
4e83   03          ???
4e84   01 00 00    ORA X,&0000
4e87   00          BRK   
4e88   00          BRK   
4e89   00          BRK   
4e8a   03          ???
4e8b   03          ???
4e8c   03          ???
4e8d   00          BRK   
4e8e   00          BRK   
4e8f   00          BRK   
4e90   00          BRK   
4e91   02          ???
4e92   03          ???
4e93   0f          ???
4e94   03          ???
4e95   00          BRK   
4e96   00          BRK   
4e97   00          BRK   
4e98   00          BRK   
4e99   03          ???
4e9a   0b          ???
4e9b   0f          ???
4e9c   03          ???
4e9d   01 00 00    ORA X,&0000
4ea0   00          BRK   
4ea1   03          ???
4ea2   0f          ???
4ea3   1f          ???
4ea4   07          ???
4ea5   01 00 00    ORA X,&0000
4ea8   02          ???
4ea9   03          ???
4eaa   2f          ???
4eab   3f          ???
4eac   0f          ???
4ead   03          ???
4eae   00          BRK   
4eaf   00          BRK   
4eb0   02          ???
4eb1   0b          ???
4eb2   2f          ???
4eb3   3f          ???
4eb4   1f          ???
4eb5   03          ???
4eb6   00          BRK   
4eb7   00          BRK   
4eb8   02          ???
4eb9   0b          ???
4eba   3f          ???
4ebb   3f          ???
4ebc   1f          ???
4ebd   07          ???
4ebe   01 00 03    ORA X,&0300
4ec1   0b          ???
4ec2   3f          ???
4ec3   3c          ???
4ec4   3f          ???
4ec5   07          ???
4ec6   03          ???
4ec7   00          BRK   
4ec8   03          ???
4ec9   0f          ???
4eca   3d 3c 3e    AND &3e3c,X
4ecd   0f          ???
4ece   03          ???
4ecf   00          BRK   
4ed0   03          ???
4ed1   2f          ???
4ed2   3d 33 3e    AND &3e33,X
4ed5   1f          ???
4ed6   07          ???
4ed7   01 03 2f    ORA X,&2f03
4eda   36 33       ROL &33,X
4edc   3c          ???
4edd   1f          ???
4ede   07          ???
4edf   01 02 0f    ORA X,&0f02
4ee2   3d 33 39    AND &3933,X
4ee5   1f          ???
4ee6   07          ???
4ee7   00          BRK   
4ee8   02          ???
4ee9   0b          ???
4eea   3d 33 39    AND &3933,X
4eed   1f          ???
4eee   03          ???
4eef   00          BRK   
4ef0   00          BRK   
4ef1   0b          ???
4ef2   37          ???
4ef3   33          ???
4ef4   33          ???
4ef5   1f          ???
4ef6   03          ???
4ef7   00          BRK   
4ef8   02          ???
4ef9   0b          ???
4efa   23          ???
4efb   23          ???
4efc   23          ???
4efd   2b          ???
4efe   03          ???
4eff   01 00 00    ORA X,&0000
4f02   00          BRK   
4f03   00          BRK   
4f04   00          BRK   
4f05   00          BRK   
4f06   00          BRK   
4f07   00          BRK   
4f08   00          BRK   
4f09   00          BRK   
4f0a   00          BRK   
4f0b   00          BRK   
4f0c   80          ???
4f0d   2a          ROL A
4f0e   80          ???
4f0f   00          BRK   
4f10   60          RTS 
4f11   29 33       AND &33
4f13   33          ???
4f14   58          CLI 
4f15   a5 02       LDA &02
4f17   08          PHP 
4f18   5a          ???
4f19   aa          TAX 
4f1a   2e c3 96    ROL &96c3
4f1d   aa          TAX 
4f1e   c2          ???
4f1f   b8          CLV 
4f20   5a          ???
4f21   a9 3b       LDA #&3b
4f23   0c          ???
4f24   a6 96       LDX &96
4f26   8a          TXA 
4f27   23          ???
4f28   58          CLI 
4f29   a5 02       LDA &02
4f2b   0c          ???
4f2c   60          RTS 
4f2d   2a          ROL A
4f2e   2e 00 80    ROL &8000
4f31   22          ???
4f32   c0 00       CPY #&00
4f34   00          BRK   
4f35   02          ???
4f36   00          BRK   
4f37   00          BRK   
4f38   00          BRK   
4f39   00          BRK   
4f3a   00          BRK   
4f3b   00          BRK   
4f3c   00          BRK   
4f3d   00          BRK   
4f3e   00          BRK   
4f3f   00          BRK   
4f40   00          BRK   
4f41   00          BRK   
4f42   00          BRK   
4f43   00          BRK   
4f44   c0 30       CPY #&30
4f46   cc 00 00    CPY &0000
4f49   f3          ???
4f4a   3c          ???
4f4b   03          ???
4f4c   c0 ac       CPY #&ac
4f4e   ea          NOP 
4f4f   00          BRK   
4f50   8c aa aa    STY &aaaa
4f53   33          ???
4f54   b0 aa       BCS -86       4f00
4f56   aa          TAX 
4f57   0e af be    ASL &beaf
4f5a   be 3a ac    LDX &ac3a,Y
4f5d   d7          ???
4f5e   d7          ???
4f5f   fa          ???
4f60   a0 d7       LDY #&d7
4f62   d7          ???
4f63   0a          ASL A
4f64   af          ???
4f65   be be fa    LDX &fabe,Y
4f68   ac aa aa    LDY &aaaa
4f6b   0e bf aa    ASL &aabf
4f6e   aa          TAX 
4f6f   32          ???
4f70   cc bc cf    CPY &cfbc
4f73   3c          ???
4f74   30 c3       BMI -61       4f39
4f76   cc 03 00    CPY &0003
4f79   30 0c       BMI  12       4f87
4f7b   03          ???
4f7c   00          BRK   
4f7d   00          BRK   
4f7e   00          BRK   
4f7f   00          BRK   
4f80   00          BRK   
4f81   50 05       BVC   5       4f88
4f83   00          BRK   
4f84   00          BRK   
4f85   a5 5a       LDA &5a
4f87   00          BRK   
4f88   40          RTI 
4f89   aa          TAX 
4f8a   aa          TAX 
4f8b   01 90 aa    ORA X,&aa90
4f8e   aa          TAX 
4f8f   06 a4       ASL &a4
4f91   aa          TAX 
4f92   aa          TAX 
4f93   1a          ???
4f94   a4 aa       LDY &aa
4f96   aa          TAX 
4f97   1a          ???
4f98   a9 aa       LDA #&aa
4f9a   aa          TAX 
4f9b   6a          ROR A
4f9c   a9 aa       LDA #&aa
4f9e   aa          TAX 
4f9f   6a          ROR A
4fa0   a9 aa       LDA #&aa
4fa2   aa          TAX 
4fa3   6a          ROR A
4fa4   e9 ab       SBC #&ab
4fa6   aa          TAX 
4fa7   6a          ROR A
4fa8   e4 af       CPX &af
4faa   aa          TAX 
4fab   1a          ???
4fac   a4 bf       LDY &bf
4fae   aa          TAX 
4faf   1a          ???
4fb0   90 bf       BCC -65       4f71
4fb2   aa          TAX 
4fb3   06 40       ASL &40
4fb5   be aa 01    LDX &01aa,Y
4fb8   00          BRK   
4fb9   a5 5a       LDA &5a
4fbb   00          BRK   
4fbc   00          BRK   
4fbd   50 05       BVC   5       4fc4
4fbf   00          BRK   
4fc0   00          BRK   
4fc1   00          BRK   
4fc2   00          BRK   
4fc3   00          BRK   
4fc4   00          BRK   
4fc5   00          BRK   
4fc6   00          BRK   
4fc7   00          BRK   
4fc8   00          BRK   
4fc9   00          BRK   
4fca   00          BRK   
4fcb   00          BRK   
4fcc   00          BRK   
4fcd   00          BRK   
4fce   00          BRK   
4fcf   00          BRK   
4fd0   00          BRK   
4fd1   00          BRK   
4fd2   00          BRK   
4fd3   00          BRK   
4fd4   00          BRK   
4fd5   00          BRK   
4fd6   00          BRK   
4fd7   00          BRK   
4fd8   00          BRK   
4fd9   00          BRK   
4fda   00          BRK   
4fdb   00          BRK   
4fdc   00          BRK   
4fdd   aa          TAX 
4fde   aa          TAX 
4fdf   02          ???
4fe0   00          BRK   
4fe1   40          RTI 
4fe2   15 50       ORA &50,X
4fe4   ff          ???
4fe5   53          ???
4fe6   45 55       EOR &55
4fe8   50 fd       BVC  -3       4fe7
4fea   ff          ???
4feb   5f          ???
4fec   00          BRK   
4fed   d5 ff       CMP &ff,X
4fef   a0 00       LDY #&00
4ff1   00          BRK   
4ff2   54          ???
4ff3   01 00 00    ORA X,&0000
4ff6   80          ???
4ff7   2a          ROL A
4ff8   00          BRK   
4ff9   00          BRK   
4ffa   00          BRK   
4ffb   00          BRK   
4ffc   00          BRK   
4ffd   00          BRK   
4ffe   00          BRK   
4fff   00          BRK   
5000   0f          ???
5001   00          BRK   
5002   00          BRK   
5003   f0 30       BEQ  48       5035
5005   50 05       BVC   5       500c
5007   0c          ???
5008   c0 50       CPY #&50
500a   05 03       ORA &03
500c   00          BRK   
500d   53          ???
500e   c5 00       CMP &00
5010   00          BRK   
5011   5c          ???
5012   35 00       AND &00,X
5014   00          BRK   
5015   a8          TAY 
5016   2a          ROL A
5017   00          BRK   
5018   00          BRK   
5019   55 55       EOR &55,X
501b   00          BRK   
501c   00          BRK   
501d   be be 00    LDX &00be,Y
5020   40          RTI 
5021   55 55       EOR &55,X
5023   01 a0 aa    ORA X,&aaa0
5026   aa          TAX 
5027   0a          ASL A
5028   50 55       BVC  85       507f
502a   55 05       EOR &05,X
502c   a0 ef       LDY #&ef
502e   fb          ???
502f   0a          ASL A
5030   40          RTI 
5031   55 55       EOR &55,X
5033   01 00 aa    ORA X,&aa00
5036   aa          TAX 
5037   00          BRK   
5038   00          BRK   
5039   aa          TAX 
503a   aa          TAX 
503b   00          BRK   
503c   00          BRK   
503d   a8          TAY 
503e   2a          ROL A
503f   00          BRK   
5040   00          BRK   
5041   40          RTI 
5042   05 00       ORA &00
5044   00          BRK   
5045   90 12       BCC  18       5059
5047   00          BRK   
5048   00          BRK   
5049   10 10       BPL  16       505b
504b   00          BRK   
504c   00          BRK   
504d   90 1a       BCC  26       5069
504f   00          BRK   
5050   00          BRK   
5051   d0 1f       BNE  31       5072
5053   00          BRK   
5054   50 45       BVC  69       509b
5056   45 15       EOR &15
5058   a4 de       LDY &de
505a   df          ???
505b   6a          ROR A
505c   24 de       BIT &de
505e   de 4a 04    DEC &044a,Y
5061   de df 42    DEC &42df,Y
5064   50 45       BVC  69       50ab
5066   45 15       EOR &15
5068   00          BRK   
5069   d0 1f       BNE  31       508a
506b   00          BRK   
506c   00          BRK   
506d   90 1a       BCC  26       5089
506f   00          BRK   
5070   00          BRK   
5071   90 12       BCC  18       5085
5073   00          BRK   
5074   00          BRK   
5075   90 10       BCC  16       5087
5077   00          BRK   
5078   00          BRK   
5079   40          RTI 
507a   05 00       ORA &00
507c   00          BRK   
507d   00          BRK   
507e   00          BRK   
507f   00          BRK   
5080   00          BRK   
5081   00          BRK   
5082   00          BRK   
5083   00          BRK   
5084   00          BRK   
5085   00          BRK   
5086   40          RTI 
5087   00          BRK   
5088   00          BRK   
5089   00          BRK   
508a   54          ???
508b   00          BRK   
508c   00          BRK   
508d   40          RTI 
508e   55 01       EOR &01,X
5090   00          BRK   
5091   54          ???
5092   fd 05 aa    SBC &aa05,X
5095   fa          ???
5096   ff          ???
5097   17          ???
5098   55 a5       EOR &a5,X
509a   aa          TAX 
509b   5a          ???
509c   00          BRK   
509d   90 bb       BCC -69       505a
509f   6f          ???
50a0   00          BRK   
50a1   90 bb       BCC -69       505e
50a3   6f          ???
50a4   55 a5       EOR &a5,X
50a6   aa          TAX 
50a7   5a          ???
50a8   aa          TAX 
50a9   fa          ???
50aa   ff          ???
50ab   17          ???
50ac   00          BRK   
50ad   54          ???
50ae   fd 05 00    SBC &0005,X
50b1   40          RTI 
50b2   55 01       EOR &01,X
50b4   00          BRK   
50b5   00          BRK   
50b6   54          ???
50b7   00          BRK   
50b8   00          BRK   
50b9   00          BRK   
50ba   40          RTI 
50bb   00          BRK   
50bc   00          BRK   
50bd   00          BRK   
50be   00          BRK   
50bf   00          BRK   
50c0   00          BRK   
50c1   14          ???
50c2   14          ???
50c3   00          BRK   
50c4   00          BRK   
50c5   59 59 00    EOR &0059,Y
50c8   40          RTI 
50c9   66 66       ROR &66
50cb   01 90 99    ORA X,&9990
50ce   99 05 64    STA &6405,Y
50d1   66 66       ROR &66
50d3   16 99       ASL &99,X
50d5   99 99 59    STA &5999,Y
50d8   65 55       ADC &55
50da   55 66       EOR &66,X
50dc   55 7d       EOR &7d,X
50de   7d 59 74    ADC &7459,X
50e1   ff          ???
50e2   ff          ???
50e3   15 74       ORA &74,X
50e5   d7          ???
50e6   d7          ???
50e7   15 d0       ORA &d0,X
50e9   55 55       EOR &55,X
50eb   07          ???
50ec   40          RTI 
50ed   7d 7d 01    ADC &017d,X
50f0   40          RTI 
50f1   7d 7d 01    ADC &017d,X
50f4   00          BRK   
50f5   55 55       EOR &55,X
50f7   00          BRK   
50f8   00          BRK   
50f9   14          ???
50fa   14          ???
50fb   00          BRK   
50fc   00          BRK   
50fd   00          BRK   
50fe   00          BRK   
50ff   00          BRK   
5100   00          BRK   
5101   00          BRK   
5102   00          BRK   
5103   00          BRK   
5104   00          BRK   
5105   00          BRK   
5106   00          BRK   
5107   00          BRK   
5108   00          BRK   
5109   00          BRK   
510a   2a          ROL A
510b   15 00       ORA &00,X
510d   0a          ASL A
510e   05 00       ORA &00
5110   00          BRK   
5111   00          BRK   
5112   3f          ???
5113   3f          ???
5114   00          BRK   
5115   0f          ???
5116   0f          ???
5117   00          BRK   
5118   00          BRK   
5119   00          BRK   
511a   3f          ???
511b   2e 1e 0f    ROL &0f1e
511e   0e 05 00    ASL &0005
5121   00          BRK   
5122   1d 3f 1f    ORA &1f3f,X
5125   0d 0f 05    ORA &050f
5128   00          BRK   
5129   00          BRK   
512a   3e 3f 0b    ROL &0b3f,X
512d   0f          ???
512e   0f          ???
512f   05 00       ORA &00
5131   0a          ASL A
5132   2f          ???
5133   03          ???
5134   03          ???
5135   0f          ???
5136   0f          ???
5137   00          BRK   
5138   00          BRK   
5139   0f          ???
513a   07          ???
513b   03          ???
513c   03          ???
513d   0b          ???
513e   05 00       ORA &00
5140   00          BRK   
5141   0f          ???
5142   0f          ???
5143   03          ???
5144   03          ???
5145   3f          ???
5146   14          ???
5147   00          BRK   
5148   0a          ASL A
5149   0f          ???
514a   0f          ???
514b   07          ???
514c   2b          ???
514d   3f          ???
514e   15 00       ORA &00,X
5150   0a          ASL A
5151   0e 0f 2f    ASL &2f0f
5154   3f          ???
5155   3f          ???
5156   3f          ???
5157   00          BRK   
5158   0a          ASL A
5159   0d 0f 2f    ORA &2f0f
515c   3f          ???
515d   1d 15 00    ORA &0015,X
5160   00          BRK   
5161   0f          ???
5162   0f          ???
5163   28          PLP 
5164   3f          ???
5165   2e 15 00    ROL &0015
5168   00          BRK   
5169   0a          ASL A
516a   05 00       ORA &00
516c   3f          ???
516d   3f          ???
516e   00          BRK   
516f   00          BRK   
5170   00          BRK   
5171   00          BRK   
5172   00          BRK   
5173   00          BRK   
5174   2a          ROL A
5175   15 00       ORA &00,X
5177   00          BRK   
5178   00          BRK   
5179   00          BRK   
517a   00          BRK   
517b   00          BRK   
517c   00          BRK   
517d   00          BRK   
517e   00          BRK   
517f   00          BRK   
5180   00          BRK   
5181   00          BRK   
5182   0f          ???
5183   00          BRK   
5184   00          BRK   
5185   3f          ???
5186   15 00       ORA &00,X
5188   00          BRK   
5189   0a          ASL A
518a   2d 0f 2a    AND &2a0f
518d   3d 3f 00    AND &003f,X
5190   00          BRK   
5191   0a          ASL A
5192   0f          ???
5193   1e 2f 3e    ORA &3e2f
5196   3e 15 00    ROL &0015,X
5199   00          BRK   
519a   0f          ???
519b   0f          ???
519c   0f          ???
519d   3f          ???
519e   3d 15 00    AND &0015,X
51a1   00          BRK   
51a2   0a          ASL A
51a3   07          ???
51a4   2b          ???
51a5   3f          ???
51a6   3e 15 00    ROL &0015,X
51a9   2a          ROL A
51aa   1f          ???
51ab   03          ???
51ac   0b          ???
51ad   2f          ???
51ae   3f          ???
51af   00          BRK   
51b0   00          BRK   
51b1   3f          ???
51b2   17          ???
51b3   23          ???
51b4   13          ???
51b5   0b          ???
51b6   15 00       ORA &00,X
51b8   00          BRK   
51b9   3d 3f 03    AND &033f,X
51bc   03          ???
51bd   0b          ???
51be   05 00       ORA &00
51c0   2a          ROL A
51c1   3e 3f 3f    ROL &3f3f,X
51c4   03          ???
51c5   0f          ???
51c6   0f          ???
51c7   00          BRK   
51c8   2a          ROL A
51c9   3e 3f 1e    ROL &1e3f,X
51cc   0f          ???
51cd   0f          ???
51ce   0f          ???
51cf   00          BRK   
51d0   2a          ROL A
51d1   3e 3d 3f    ROL &3f3d,X
51d4   0f          ???
51d5   0f          ???
51d6   1e 00 2a    ORA &2a00
51d9   3f          ???
51da   3c          ???
51db   15 2d       ORA &2d,X
51dd   2d 0f 00    AND &000f
51e0   00          BRK   
51e1   3f          ???
51e2   3f          ???
51e3   00          BRK   
51e4   0a          ASL A
51e5   1e 05 00    ORA &0005
51e8   00          BRK   
51e9   2a          ROL A
51ea   15 00       ORA &00,X
51ec   00          BRK   
51ed   0f          ???
51ee   00          BRK   
51ef   00          BRK   
51f0   00          BRK   
51f1   00          BRK   
51f2   00          BRK   
51f3   00          BRK   
51f4   00          BRK   
51f5   00          BRK   
51f6   00          BRK   
51f7   00          BRK   
51f8   00          BRK   
51f9   00          BRK   
51fa   00          BRK   
51fb   00          BRK   
51fc   00          BRK   
51fd   00          BRK   
51fe   00          BRK   
51ff   00          BRK   
5200   00          BRK   
5201   00          BRK   
5202   2d 05 28    AND &2805
5205   3e 00 00    ROL &0000,X
5208   00          BRK   
5209   0a          ASL A
520a   3c          ???
520b   3e 2f 3c    ROL &3c2f,X
520e   15 00       ORA &00,X
5210   00          BRK   
5211   2d 1e 0f    AND &0f1e
5214   3f          ???
5215   3d 3e 00    AND &003e,X
5218   0a          ASL A
5219   3c          ???
521a   0f          ???
521b   0f          ???
521c   3f          ???
521d   3f          ???
521e   3e 00 28    ROL &2800,X
5221   1e 0f 1b    ORA &1b0f
5224   3b          ???
5225   3f          ???
5226   3e 00 28    ROL &2800,X
5229   0f          ???
522a   27          ???
522b   23          ???
522c   23          ???
522d   3f          ???
522e   15 00       ORA &00,X
5230   2a          ROL A
5231   2f          ???
5232   13          ???
5233   33          ???
5234   13          ???
5235   3f          ???
5236   00          BRK   
5237   00          BRK   
5238   28          PLP 
5239   3f          ???
523a   23          ???
523b   13          ???
523c   13          ???
523d   1b          ???
523e   0f          ???
523f   00          BRK   
5240   28          PLP 
5241   3e 37 23    ROL &2337,X
5244   23          ???
5245   0f          ???
5246   2d 00 2a    AND &2a00
5249   3c          ???
524a   3f          ???
524b   3b          ???
524c   1b          ???
524d   0f          ???
524e   0f          ???
524f   14          ???
5250   00          BRK   
5251   3d 3f 3d    AND &3d3f,X
5254   1e 0f 2d    ORA &2d0f
5257   14          ???
5258   00          BRK   
5259   3d 3c 3e    AND &3e3c,X
525c   2d 2d 3c    AND &3c2d
525f   05 00       ORA &00
5261   2a          ROL A
5262   3c          ???
5263   15 2d       ORA &2d,X
5265   3c          ???
5266   0f          ???
5267   00          BRK   
5268   00          BRK   
5269   00          BRK   
526a   3f          ???
526b   00          BRK   
526c   00          BRK   
526d   0f          ???
526e   05 00       ORA &00
5270   00          BRK   
5271   00          BRK   
5272   00          BRK   
5273   00          BRK   
5274   00          BRK   
5275   00          BRK   
5276   00          BRK   
5277   00          BRK   
5278   00          BRK   
5279   00          BRK   
527a   00          BRK   
527b   00          BRK   
527c   00          BRK   
527d   00          BRK   
527e   00          BRK   
527f   00          BRK   
5280   00          BRK   
5281   00          BRK   
5282   28          PLP 
5283   14          ???
5284   28          PLP 
5285   34          ???
5286   00          BRK   
5287   00          BRK   
5288   00          BRK   
5289   28          PLP 
528a   1e 2d 3c    ORA &3c2d
528d   3c          ???
528e   14          ???
528f   00          BRK   
5290   00          BRK   
5291   3c          ???
5292   2d 3c 3c    AND &3c3c
5295   3e 14 00    ROL &0014,X
5298   00          BRK   
5299   1e 3c 29    ORA &293c
529c   29 3c       AND &3c
529e   3d 00 00    AND &0000,X
52a1   1e 16 13    ORA &1316
52a4   13          ???
52a5   3c          ???
52a6   3d 00 28    AND &2800,X
52a9   3c          ???
52aa   23          ???
52ab   33          ???
52ac   33          ???
52ad   29 3d       AND &3d
52af   14          ???
52b0   28          PLP 
52b1   16 33       ASL &33,X
52b3   33          ???
52b4   33          ???
52b5   13          ???
52b6   3c          ???
52b7   00          BRK   
52b8   00          BRK   
52b9   16 33       ASL &33,X
52bb   33          ???
52bc   33          ???
52bd   13          ???
52be   3d 00 28    AND &2800,X
52c1   2d 23 33    AND &3323
52c4   33          ???
52c5   29 3e       AND &3e
52c7   14          ???
52c8   00          BRK   
52c9   1e 16 13    ORA &1316
52cc   13          ???
52cd   29 3d       AND &3d
52cf   14          ???
52d0   28          PLP 
52d1   3c          ???
52d2   07          ???
52d3   29 29       AND &29
52d5   3f          ???
52d6   3d 00 00    AND &0000,X
52d9   3c          ???
52da   0f          ???
52db   14          ???
52dc   3c          ???
52dd   3c          ???
52de   3c          ???
52df   00          BRK   
52e0   00          BRK   
52e1   28          PLP 
52e2   3c          ???
52e3   00          BRK   
52e4   28          PLP 
52e5   3c          ???
52e6   00          BRK   
52e7   00          BRK   
52e8   00          BRK   
52e9   28          PLP 
52ea   14          ???
52eb   00          BRK   
52ec   00          BRK   
52ed   00          BRK   
52ee   00          BRK   
52ef   00          BRK   
52f0   00          BRK   
52f1   00          BRK   
52f2   00          BRK   
52f3   00          BRK   
52f4   00          BRK   
52f5   00          BRK   
52f6   00          BRK   
52f7   00          BRK   
52f8   00          BRK   
52f9   00          BRK   
52fa   00          BRK   
52fb   00          BRK   
52fc   00          BRK   
52fd   00          BRK   
52fe   00          BRK   
52ff   00          BRK   
5300   00          BRK   
5301   00          BRK   
5302   00          BRK   
5303   00          BRK   
5304   00          BRK   
5305   00          BRK   
5306   00          BRK   
5307   00          BRK   
5308   00          BRK   
5309   00          BRK   
530a   28          PLP 
530b   00          BRK   
530c   00          BRK   
530d   14          ???
530e   00          BRK   
530f   00          BRK   
5310   00          BRK   
5311   28          PLP 
5312   3c          ???
5313   14          ???
5314   28          PLP 
5315   3c          ???
5316   14          ???
5317   00          BRK   
5318   00          BRK   
5319   1e 3c 3c    ORA &3c3c
531c   3c          ???
531d   3c          ???
531e   3d 00 28    AND &2800,X
5321   2d 16 13    AND &1316
5324   13          ???
5325   3c          ???
5326   3e 14 28    ROL &2814,X
5329   3c          ???
532a   23          ???
532b   33          ???
532c   33          ???
532d   29 3c       AND &3c
532f   14          ???
5330   00          BRK   
5331   16 33       ASL &33,X
5333   33          ???
5334   33          ???
5335   39 3c 00    AND &003c,Y
5338   28          PLP 
5339   36 33       ROL &33,X
533b   33          ???
533c   33          ???
533d   33          ???
533e   29 00       AND &00
5340   00          BRK   
5341   36 33       ROL &33,X
5343   31 33 33    AND (&3333,Y)
5346   14          ???
5347   00          BRK   
5348   00          BRK   
5349   28          PLP 
534a   33          ???
534b   33          ???
534c   33          ???
534d   33          ???
534e   14          ???
534f   00          BRK   
5350   00          BRK   
5351   3c          ???
5352   33          ???
5353   33          ???
5354   33          ???
5355   13          ???
5356   3c          ???
5357   00          BRK   
5358   28          PLP 
5359   3c          ???
535a   36 33       ROL &33,X
535c   33          ???
535d   29 3c       AND &3c
535f   00          BRK   
5360   00          BRK   
5361   1e 3c 13    ORA &133c
5364   39 3c 3c    AND &3c3c,Y
5367   00          BRK   
5368   00          BRK   
5369   28          PLP 
536a   3c          ???
536b   3c          ???
536c   3c          ???
536d   3c          ???
536e   14          ???
536f   00          BRK   
5370   00          BRK   
5371   00          BRK   
5372   14          ???
5373   28          PLP 
5374   14          ???
5375   28          PLP 
5376   00          BRK   
5377   00          BRK   
5378   00          BRK   
5379   00          BRK   
537a   00          BRK   
537b   00          BRK   
537c   00          BRK   
537d   00          BRK   
537e   00          BRK   
537f   00          BRK   
5380   00          BRK   
5381   00          BRK   
5382   00          BRK   
5383   00          BRK   
5384   00          BRK   
5385   00          BRK   
5386   00          BRK   
5387   00          BRK   
5388   00          BRK   
5389   00          BRK   
538a   00          BRK   
538b   00          BRK   
538c   00          BRK   
538d   00          BRK   
538e   00          BRK   
538f   00          BRK   
5390   00          BRK   
5391   00          BRK   
5392   00          BRK   
5393   28          PLP 
5394   28          PLP 
5395   14          ???
5396   00          BRK   
5397   00          BRK   
5398   00          BRK   
5399   28          PLP 
539a   28          PLP 
539b   36 36       ROL &36,X
539d   39 00 00    AND &0000,Y
53a0   00          BRK   
53a1   3c          ???
53a2   36 36       ROL &36,X
53a4   33          ???
53a5   33          ???
53a6   14          ???
53a7   00          BRK   
53a8   28          PLP 
53a9   3c          ???
53aa   33          ???
53ab   33          ???
53ac   33          ???
53ad   33          ???
53ae   39 00 00    AND &0000,Y
53b1   36 33       ROL &33,X
53b3   31 32 33    AND (&3332,Y)
53b6   39 00 28    AND &2800,Y
53b9   33          ???
53ba   33          ???
53bb   10 20       BPL  32       53dd
53bd   33          ???
53be   33          ???
53bf   14          ???
53c0   00          BRK   
53c1   36 33       ROL &33,X
53c3   10 20       BPL  32       53e5
53c5   33          ???
53c6   39 14 00    AND &0014,Y
53c9   36 33       ROL &33,X
53cb   31 32 33    AND (&3332,Y)
53ce   14          ???
53cf   00          BRK   
53d0   28          PLP 
53d1   3c          ???
53d2   33          ???
53d3   33          ???
53d4   33          ???
53d5   33          ???
53d6   3c          ???
53d7   00          BRK   
53d8   00          BRK   
53d9   3c          ???
53da   36 33       ROL &33,X
53dc   33          ???
53dd   33          ???
53de   39 00 00    AND &0000,Y
53e1   28          PLP 
53e2   3c          ???
53e3   33          ???
53e4   36 3c       ROL &3c,X
53e6   3c          ???
53e7   00          BRK   
53e8   00          BRK   
53e9   00          BRK   
53ea   14          ???
53eb   3c          ???
53ec   28          PLP 
53ed   00          BRK   
53ee   14          ???
53ef   00          BRK   
53f0   00          BRK   
53f1   00          BRK   
53f2   00          BRK   
53f3   00          BRK   
53f4   00          BRK   
53f5   00          BRK   
53f6   00          BRK   
53f7   00          BRK   
53f8   00          BRK   
53f9   00          BRK   
53fa   00          BRK   
53fb   00          BRK   
53fc   00          BRK   
53fd   00          BRK   
53fe   00          BRK   
53ff   00          BRK   
5400   00          BRK   
5401   00          BRK   
5402   00          BRK   
5403   00          BRK   
5404   00          BRK   
5405   00          BRK   
5406   00          BRK   
5407   00          BRK   
5408   00          BRK   
5409   00          BRK   
540a   00          BRK   
540b   00          BRK   
540c   00          BRK   
540d   00          BRK   
540e   00          BRK   
540f   00          BRK   
5410   00          BRK   
5411   00          BRK   
5412   28          PLP 
5413   00          BRK   
5414   14          ???
5415   39 00 00    AND &0000,Y
5418   00          BRK   
5419   00          BRK   
541a   33          ???
541b   33          ???
541c   33          ???
541d   33          ???
541e   00          BRK   
541f   00          BRK   
5420   00          BRK   
5421   28          PLP 
5422   33          ???
5423   31 32 33    AND (&3332,Y)
5426   11 00 00    ORA (&0000,Y)
5429   33          ???
542a   33          ???
542b   10 20       BPL  32       544d
542d   33          ???
542e   39 00 28    AND &2800,Y
5431   33          ???
5432   31 00 00    AND (&0000,Y)
5435   32          ???
5436   33          ???
5437   00          BRK   
5438   22          ???
5439   33          ???
543a   11 00 00    ORA (&0000,Y)
543d   22          ???
543e   33          ???
543f   14          ???
5440   22          ???
5441   33          ???
5442   31 00 00    AND (&0000,Y)
5445   32          ???
5446   33          ???
5447   00          BRK   
5448   22          ???
5449   33          ???
544a   33          ???
544b   10 20       BPL  32       546d
544d   33          ???
544e   11 00 00    ORA (&0000,Y)
5451   39 33 31    AND &3133,Y
5454   32          ???
5455   33          ???
5456   39 00 28    AND &2800,Y
5459   22          ???
545a   33          ???
545b   33          ???
545c   33          ???
545d   33          ???
545e   11 00 00    ORA (&0000,Y)
5461   14          ???
5462   33          ???
5463   33          ???
5464   28          PLP 
5465   11 14 00    ORA (&0014,Y)
5468   00          BRK   
5469   00          BRK   
546a   28          PLP 
546b   14          ???
546c   00          BRK   
546d   00          BRK   
546e   00          BRK   
546f   00          BRK   
5470   00          BRK   
5471   00          BRK   
5472   00          BRK   
5473   00          BRK   
5474   00          BRK   
5475   00          BRK   
5476   00          BRK   
5477   00          BRK   
5478   00          BRK   
5479   00          BRK   
547a   00          BRK   
547b   00          BRK   
547c   00          BRK   
547d   00          BRK   
547e   00          BRK   
547f   00          BRK   
5480   00          BRK   
5481   00          BRK   
5482   00          BRK   
5483   00          BRK   
5484   00          BRK   
5485   00          BRK   
5486   00          BRK   
5487   00          BRK   
5488   00          BRK   
5489   00          BRK   
548a   00          BRK   
548b   00          BRK   
548c   00          BRK   
548d   00          BRK   
548e   00          BRK   
548f   00          BRK   
5490   00          BRK   
5491   00          BRK   
5492   22          ???
5493   30 30       BMI  48       54c5
5495   11 00 00    ORA (&0000,Y)
5498   00          BRK   
5499   00          BRK   
549a   31 10 20    AND (&2010,Y)
549d   32          ???
549e   00          BRK   
549f   00          BRK   
54a0   00          BRK   
54a1   22          ???
54a2   30 00       BMI   0       54a4
54a4   00          BRK   
54a5   30 11       BMI  17       54b8
54a7   00          BRK   
54a8   00          BRK   
54a9   20 10 00    JSR &0010
54ac   00          BRK   
54ad   20 10 00    JSR &0010
54b0   00          BRK   
54b1   31 00 00    AND (&0000,Y)
54b4   00          BRK   
54b5   00          BRK   
54b6   32          ???
54b7   00          BRK   
54b8   00          BRK   
54b9   31 00 00    AND (&0000,Y)
54bc   00          BRK   
54bd   00          BRK   
54be   32          ???
54bf   00          BRK   
54c0   00          BRK   
54c1   31 00 00    AND (&0000,Y)
54c4   00          BRK   
54c5   00          BRK   
54c6   32          ???
54c7   00          BRK   
54c8   00          BRK   
54c9   20 10 00    JSR &0010
54cc   00          BRK   
54cd   20 10 00    JSR &0010
54d0   00          BRK   
54d1   22          ???
54d2   30 00       BMI   0       54d4
54d4   00          BRK   
54d5   30 11       BMI  17       54e8
54d7   00          BRK   
54d8   00          BRK   
54d9   00          BRK   
54da   31 10 20    AND (&2010,Y)
54dd   32          ???
54de   00          BRK   
54df   00          BRK   
54e0   00          BRK   
54e1   00          BRK   
54e2   22          ???
54e3   30 30       BMI  48       5515
54e5   11 00 00    ORA (&0000,Y)
54e8   00          BRK   
54e9   00          BRK   
54ea   00          BRK   
54eb   00          BRK   
54ec   00          BRK   
54ed   00          BRK   
54ee   00          BRK   
54ef   00          BRK   
54f0   00          BRK   
54f1   00          BRK   
54f2   00          BRK   
54f3   00          BRK   
54f4   00          BRK   
54f5   00          BRK   
54f6   00          BRK   
54f7   00          BRK   
54f8   00          BRK   
54f9   00          BRK   
54fa   00          BRK   
54fb   00          BRK   
54fc   00          BRK   
54fd   00          BRK   
54fe   00          BRK   
54ff   00          BRK   
5500   bf          ???
5501   03          ???
5502   c0 ef       CPY #&ef
5504   bf          ???
5505   03          ???
5506   c0 ef       CPY #&ef
5508   bf          ???
5509   03          ???
550a   c0 ef       CPY #&ef
550c   bf          ???
550d   c3          ???
550e   c3          ???
550f   ef          ???
5510   ab          ???
5511   c3          ???
5512   c3          ???
5513   ea          NOP 
5514   ec f0 0e    CPX &0ef0
5517   3b          ???
5518   ec fc 3b    CPX &3bfc
551b   3b          ???
551c   ec fc 3b    CPX &3bfc
551f   3b          ???
5520   ff          ???
5521   fc          ???
5522   3b          ???
5523   ff          ???
5524   ff          ???
5525   ac 3a ff    LDY &ff3a
5528   bb          ???
5529   ff          ???
552a   ff          ???
552b   ee bb 57    INC &57bb
552e   eb          ???
552f   ee bb 7f    INC &7fbb
5532   eb          ???
5533   ee bb 5f    INC &5fbb
5536   eb          ???
5537   ee ff 7f    INC &7fff
553a   eb          ???
553b   ff          ???
553c   ff          ???
553d   57          ???
553e   eb          ???
553f   ff          ???
5540   bf          ???
5541   ff          ???
5542   eb          ???
5543   ef          ???
5544   bf          ???
5545   df          ???
5546   eb          ???
5547   ef          ???
5548   bf          ???
5549   df          ???
554a   eb          ???
554b   ef          ???
554c   bf          ???
554d   df          ???
554e   eb          ???
554f   ef          ???
5550   bf          ???
5551   57          ???
5552   eb          ???
5553   ef          ???
5554   bf          ???
5555   ff          ???
5556   eb          ???
5557   ef          ???
5558   bf          ???
5559   77          ???
555a   eb          ???
555b   ef          ???
555c   bf          ???
555d   57          ???
555e   eb          ???
555f   ef          ???
5560   bf          ???
5561   77          ???
5562   eb          ???
5563   ef          ???
5564   bf          ???
5565   df          ???
5566   eb          ???
5567   ef          ???
5568   ab          ???
5569   ff          ???
556a   eb          ???
556b   ea          NOP 
556c   bc 77 eb    LDY &eb77,X
556f   3b          ???
5570   bc 77 eb    LDY &eb77,X
5573   3b          ???
5574   bc 57 eb    LDY &eb57,X
5577   3b          ???
5578   b0 77       BCS 119       55f1
557a   eb          ???
557b   0e b0 ff    ASL &ffb0
557e   eb          ???
557f   0e b0 57    ASL &57b0
5582   eb          ???
5583   0e c0 df    ASL &dfc0
5586   eb          ???
5587   03          ???
5588   c0 df       CPY #&df
558a   eb          ???
558b   03          ???
558c   c0 57       CPY #&57
558e   eb          ???
558f   03          ???
5590   00          BRK   
5591   ff          ???
5592   eb          ???
5593   00          BRK   
5594   00          BRK   
5595   df          ???
5596   eb          ???
5597   00          BRK   
5598   00          BRK   
5599   df          ???
559a   eb          ???
559b   00          BRK   
559c   00          BRK   
559d   df          ???
559e   eb          ???
559f   00          BRK   
55a0   00          BRK   
55a1   57          ???
55a2   eb          ???
55a3   00          BRK   
55a4   00          BRK   
55a5   ff          ???
55a6   eb          ???
55a7   00          BRK   
55a8   00          BRK   
55a9   57          ???
55aa   eb          ???
55ab   00          BRK   
55ac   00          BRK   
55ad   7f          ???
55ae   eb          ???
55af   00          BRK   
55b0   00          BRK   
55b1   7f          ???
55b2   eb          ???
55b3   00          BRK   
55b4   00          BRK   
55b5   7f          ???
55b6   eb          ???
55b7   00          BRK   
55b8   00          BRK   
55b9   ff          ???
55ba   eb          ???
55bb   00          BRK   
55bc   00          BRK   
55bd   57          ???
55be   eb          ???
55bf   00          BRK   
55c0   00          BRK   
55c1   77          ???
55c2   eb          ???
55c3   00          BRK   
55c4   00          BRK   
55c5   77          ???
55c6   eb          ???
55c7   00          BRK   
55c8   00          BRK   
55c9   77          ???
55ca   eb          ???
55cb   00          BRK   
55cc   00          BRK   
55cd   ff          ???
55ce   eb          ???
55cf   00          BRK   
55d0   00          BRK   
55d1   ab          ???
55d2   ea          NOP 
55d3   00          BRK   
55d4   00          BRK   
55d5   ff          ???
55d6   eb          ???
55d7   00          BRK   
55d8   00          BRK   
55d9   fc          ???
55da   3b          ???
55db   00          BRK   
55dc   00          BRK   
55dd   fc          ???
55de   3b          ???
55df   00          BRK   
55e0   00          BRK   
55e1   fc          ???
55e2   3b          ???
55e3   00          BRK   
55e4   00          BRK   
55e5   f0 0e       BEQ  14       55f5
55e7   00          BRK   
55e8   00          BRK   
55e9   f0 0e       BEQ  14       55f9
55eb   00          BRK   
55ec   00          BRK   
55ed   f0 0e       BEQ  14       55fd
55ef   00          BRK   
55f0   00          BRK   
55f1   c0 03       CPY #&03
55f3   00          BRK   
55f4   00          BRK   
55f5   c0 03       CPY #&03
55f7   00          BRK   
55f8   00          BRK   
55f9   c0 03       CPY #&03
55fb   00          BRK   
55fc   00          BRK   
55fd   00          BRK   
55fe   00          BRK   
55ff   00          BRK   
5600   a2 e0       LDX #&e0
5602   00          BRK   
5603   c0 aa       CPY #&aa
5605   e0 00       CPX #&00
5607   c0 aa       CPY #&aa
5609   e0 00       CPX #&00
560b   f0 aa       BEQ -86       55b7
560d   e0 f0       CPX #&f0
560f   f3          ???
5610   aa          TAX 
5611   e0 f3       CPX #&f3
5613   f3          ???
5614   aa          TAX 
5615   e0 f3       CPX #&f3
5617   f3          ???
5618   02          ???
5619   f8          SED 
561a   f3          ???
561b   f3          ???
561c   a9 f8       LDA #&f8
561e   f3          ???
561f   f3          ???
5620   09 f8       ORA &f8
5622   f3          ???
5623   f3          ???
5624   a1 f2 f3    LDA &f3f2
5627   33          ???
5628   a9 fa       LDA #&fa
562a   ff          ???
562b   33          ???
562c   a9 fa       LDA #&fa
562e   ff          ???
562f   30 a9       BMI -87       55da
5631   78          SEI 
5632   f5 0c       SBC &0c,X
5634   a9 78       LDA #&78
5636   ff          ???
5637   0c          ???
5638   a9 78       LDA #&78
563a   35 0c       AND &0c,X
563c   a9 f8       LDA #&f8
563e   3f          ???
563f   03          ???
5640   a9 78       LDA #&78
5642   f5 03       SBC &03,X
5644   a9 78       LDA #&78
5646   ff          ???
5647   03          ???
5648   a9 78       LDA #&78
564a   ff          ???
564b   03          ???
564c   a9 f8       LDA #&f8
564e   b7          ???
564f   02          ???
5650   a9 78       LDA #&78
5652   b5 02       LDA &02,X
5654   a9 f8       LDA #&f8
5656   b7          ???
5657   02          ???
5658   a9 f8       LDA #&f8
565a   bf          ???
565b   02          ???
565c   a9 78       LDA #&78
565e   b5 02       LDA &02,X
5660   a9 f8       LDA #&f8
5662   bf          ???
5663   02          ???
5664   a9 78       LDA #&78
5666   b5 02       LDA &02,X
5668   a9 f8       LDA #&f8
566a   b7          ???
566b   02          ???
566c   a9 f8       LDA #&f8
566e   bd 02 a9    LDA &a902,X
5671   f8          SED 
5672   b7          ???
5673   02          ???
5674   a9 78       LDA #&78
5676   b5 02       LDA &02,X
5678   a9 f8       LDA #&f8
567a   bf          ???
567b   02          ???
567c   a9 78       LDA #&78
567e   bd 02 a9    LDA &a902,X
5681   f8          SED 
5682   b7          ???
5683   02          ???
5684   a9 78       LDA #&78
5686   bd 02 a9    LDA &a902,X
5689   f8          SED 
568a   bf          ???
568b   02          ???
568c   a9 f8       LDA #&f8
568e   b7          ???
568f   02          ???
5690   a9 78       LDA #&78
5692   b5 02       LDA &02,X
5694   a9 f8       LDA #&f8
5696   b7          ???
5697   02          ???
5698   a9 f8       LDA #&f8
569a   bf          ???
569b   02          ???
569c   a9 78       LDA #&78
569e   b5 02       LDA &02,X
56a0   a9 78       LDA #&78
56a2   b5 02       LDA &02,X
56a4   a9 78       LDA #&78
56a6   b7          ???
56a7   02          ???
56a8   a9 f8       LDA #&f8
56aa   bf          ???
56ab   02          ???
56ac   a9 f8       LDA #&f8
56ae   ff          ???
56af   03          ???
56b0   a9 f8       LDA #&f8
56b2   ff          ???
56b3   03          ???
56b4   a9 f8       LDA #&f8
56b6   ff          ???
56b7   03          ???
56b8   a9 f8       LDA #&f8
56ba   af          ???
56bb   03          ???
56bc   25 f6       AND &f6
56be   af          ???
56bf   03          ???
56c0   25 f6       AND &f6
56c2   ff          ???
56c3   03          ???
56c4   25 f6       AND &f6
56c6   af          ???
56c7   03          ???
56c8   a5 f6       LDA &f6
56ca   ef          ???
56cb   00          BRK   
56cc   95 f5       STA &f5,X
56ce   ff          ???
56cf   00          BRK   
56d0   95 f5       STA &f5,X
56d2   3f          ???
56d3   00          BRK   
56d4   55 f5       EOR &f5,X
56d6   3f          ???
56d7   00          BRK   
56d8   55 f4       EOR &f4,X
56da   3f          ???
56db   00          BRK   
56dc   55 f4       EOR &f4,X
56de   3f          ???
56df   00          BRK   
56e0   55 f4       EOR &f4,X
56e2   3f          ???
56e3   00          BRK   
56e4   55 f4       EOR &f4,X
56e6   0f          ???
56e7   00          BRK   
56e8   55 c4       EOR &c4,X
56ea   0f          ???
56eb   00          BRK   
56ec   55 c4       EOR &c4,X
56ee   03          ???
56ef   00          BRK   
56f0   15 c5       ORA &c5,X
56f2   03          ???
56f3   00          BRK   
56f4   54          ???
56f5   01 00 00    ORA X,&0000
56f8   50 00       BVC   0       56fa
56fa   00          BRK   
56fb   00          BRK   
56fc   00          BRK   
56fd   00          BRK   
56fe   00          BRK   
56ff   00          BRK   
5700   ff          ???
5701   3a          ???
5702   ff          ???
5703   3a          ???
5704   ff          ???
5705   3a          ???
5706   ff          ???
5707   3a          ???
5708   ff          ???
5709   3a          ???
570a   ff          ???
570b   3a          ???
570c   ff          ???
570d   3a          ???
570e   ff          ???
570f   3a          ???
5710   ab          ???
5711   3a          ???
5712   ab          ???
5713   3a          ???
5714   fc          ???
5715   0e fc 0e    ASL &0efc
5718   fc          ???
5719   0e fc 0e    ASL &0efc
571c   fc          ???
571d   0e fc 0e    ASL &0efc
5720   b0 03       BCS   3       5725
5722   b0 03       BCS   3       5727
5724   fc          ???
5725   ff          ???
5726   ff          ???
5727   0f          ???
5728   7c          ???
5729   f5 ae       SBC &ae,X
572b   0e 7c ff    ASL &ff7c
572e   ae 0e 7c    LDX &7c0e
5731   f5 ae       SBC &ae,X
5733   0e 7c ff    ASL &ff7c
5736   ae 0e 7c    LDX &7c0e
5739   f5 ae       SBC &ae,X
573b   0e fc ff    ASL &fffc
573e   ff          ???
573f   0f          ???
5740   ff          ???
5741   ff          ???
5742   ff          ???
5743   3f          ???
5744   bb          ???
5745   eb          ???
5746   ba          TSX 
5747   3b          ???
5748   bb          ???
5749   eb          ???
574a   ba          TSX 
574b   3b          ???
574c   bb          ???
574d   eb          ???
574e   ba          TSX 
574f   3b          ???
5750   ef          ???
5751   be ef 3e    LDX &3eef,Y
5754   ff          ???
5755   ff          ???
5756   ff          ???
5757   3f          ???
5758   af          ???
5759   5e ed 3a    LSR &3aed,X
575c   ef          ???
575d   fe ed 3a    INC &3aed,X
5760   ef          ???
5761   5f          ???
5762   ed 3a ef    SBC &ef3a
5765   ff          ???
5766   ed 3a df    SBC &df3a
5769   5d ed 3a    EOR &3aed,X
576c   df          ???
576d   fd ef 3a    SBC &3aef,X
5770   7f          ???
5771   7d ef 3a    ADC &3aef,X
5774   df          ???
5775   7d ef 3a    ADC &3aef,X
5778   7f          ???
5779   5d ed 3a    EOR &3aed,X
577c   bf          ???
577d   fe ef 3a    INC &3aef,X
5780   ef          ???
5781   de ed 3a    DEC &3aed,Y
5784   ef          ???
5785   5e ed 3a    LSR &3aed,X
5788   bf          ???
5789   de ed 3a    DEC &3aed,Y
578c   ff          ???
578d   7f          ???
578e   ff          ???
578f   3f          ???
5790   fc          ???
5791   ff          ???
5792   ff          ???
5793   0f          ???
5794   ec ba eb    CPX &ebba
5797   0e ec ba    ASL &baec
579a   eb          ???
579b   0e bc ff    ASL &ffbc
579e   bf          ???
579f   0f          ???
57a0   bc f7 b7    LDY &b7f7,X
57a3   0f          ???
57a4   f0 f7       BEQ  -9       579d
57a6   f7          ???
57a7   03          ???
57a8   f0 77       BEQ 119       5821
57aa   f7          ???
57ab   03          ???
57ac   f0 df       BEQ -33       578d
57ae   fd 03 f0    SBC &f003,X
57b1   fe ef 03    INC &03ef,X
57b4   f0 5e       BEQ  94       5814
57b6   ed 03 f0    SBC &f003
57b9   7e ef 03    ROR &03ef,X
57bc   f0 5e       BEQ  94       581c
57be   ed 03 c0    SBC &c003
57c1   fe ef 00    INC &00ef,X
57c4   c0 7e       CPY #&7e
57c6   ef          ???
57c7   00          BRK   
57c8   c0 7e       CPY #&7e
57ca   ef          ???
57cb   00          BRK   
57cc   c0 5e       CPY #&5e
57ce   ed 00 c0    SBC &c000
57d1   fe ef 00    INC &00ef,X
57d4   c0 5e       CPY #&5e
57d6   ed 00 c0    SBC &c000
57d9   fb          ???
57da   fd 00 c0    SBC &c000,X
57dd   fb          ???
57de   fd 00 c0    SBC &c000,X
57e1   ff          ???
57e2   ff          ???
57e3   00          BRK   
57e4   00          BRK   
57e5   5f          ???
57e6   3d 00 00    AND &0000,X
57e9   dc          ???
57ea   0d 00 00    ORA &0000
57ed   dc          ???
57ee   0d 00 00    ORA &0000
57f1   fc          ???
57f2   0f          ???
57f3   00          BRK   
57f4   00          BRK   
57f5   f0 03       BEQ   3       57fa
57f7   00          BRK   
57f8   00          BRK   
57f9   c0 00       CPY #&00
57fb   00          BRK   
57fc   00          BRK   
57fd   c0 00       CPY #&00
57ff   00          BRK   
5800   03          ???
5801   00          BRK   
5802   00          BRK   
5803   c0 c3       CPY #&c3
5805   ff          ???
5806   af          ???
5807   c3          ???
5808   c3          ???
5809   ff          ???
580a   af          ???
580b   c3          ???
580c   c3          ???
580d   ff          ???
580e   af          ???
580f   c3          ???
5810   cf          ???
5811   ff          ???
5812   af          ???
5813   f3          ???
5814   cf          ???
5815   ff          ???
5816   af          ???
5817   f3          ???
5818   cf          ???
5819   aa          TAX 
581a   aa          TAX 
581b   f3          ???
581c   3f          ???
581d   ff          ???
581e   ef          ???
581f   fc          ???
5820   3f          ???
5821   ff          ???
5822   ef          ???
5823   fc          ???
5824   3f          ???
5825   ff          ???
5826   ef          ???
5827   fc          ???
5828   ff          ???
5829   fc          ???
582a   3b          ???
582b   ff          ???
582c   ff          ???
582d   fc          ???
582e   3f          ???
582f   ff          ???
5830   f7          ???
5831   fb          ???
5832   ef          ???
5833   d5 57       CMP &57,X
5835   fb          ???
5836   ef          ???
5837   dd 77 fb    CMP &fb77,X
583a   ef          ???
583b   dd 7f fb    CMP &fb7f,X
583e   ef          ???
583f   dd 7f fb    CMP &fb7f,X
5842   ef          ???
5843   dd ff fb    CMP &fbff,X
5846   ef          ???
5847   ff          ???
5848   ff          ???
5849   fb          ???
584a   ef          ???
584b   ff          ???
584c   f3          ???
584d   fb          ???
584e   ef          ???
584f   cf          ???
5850   f3          ???
5851   fb          ???
5852   ef          ???
5853   cf          ???
5854   f3          ???
5855   fb          ???
5856   ef          ???
5857   cf          ???
5858   f3          ???
5859   fb          ???
585a   ef          ???
585b   cf          ???
585c   f3          ???
585d   fb          ???
585e   ef          ???
585f   cf          ???
5860   c3          ???
5861   fe bf c3    INC &c3bf,X
5864   c3          ???
5865   fe bf c3    INC &c3bf,X
5868   c3          ???
5869   fe bf c3    INC &c3bf,X
586c   c3          ???
586d   fe bf c3    INC &c3bf,X
5870   03          ???
5871   ff          ???
5872   ff          ???
5873   c0 03       CPY #&03
5875   ff          ???
5876   ff          ???
5877   c0 03       CPY #&03
5879   ff          ???
587a   ff          ???
587b   c0 03       CPY #&03
587d   ff          ???
587e   ff          ???
587f   c0 03       CPY #&03
5881   ff          ???
5882   ff          ???
5883   c0 00       CPY #&00
5885   ff          ???
5886   ff          ???
5887   00          BRK   
5888   00          BRK   
5889   ff          ???
588a   ff          ???
588b   00          BRK   
588c   c0 ff       CPY #&ff
588e   ff          ???
588f   03          ???
5890   c0 ff       CPY #&ff
5892   ff          ???
5893   03          ???
5894   c0 ff       CPY #&ff
5896   ff          ???
5897   03          ???
5898   c0 ff       CPY #&ff
589a   ff          ???
589b   03          ???
589c   c0 ff       CPY #&ff
589e   ff          ???
589f   03          ???
58a0   c0 ef       CPY #&ef
58a2   fb          ???
58a3   03          ???
58a4   c0 eb       CPY #&eb
58a6   eb          ???
58a7   03          ???
58a8   c0 ea       CPY #&ea
58aa   ab          ???
58ab   03          ???
58ac   c0 ea       CPY #&ea
58ae   ab          ???
58af   03          ???
58b0   c0 ea       CPY #&ea
58b2   bb          ???
58b3   03          ???
58b4   c0 ea       CPY #&ea
58b6   ef          ???
58b7   03          ???
58b8   c0 ea       CPY #&ea
58ba   bb          ???
58bb   03          ???
58bc   c0 ea       CPY #&ea
58be   af          ???
58bf   03          ???
58c0   00          BRK   
58c1   eb          ???
58c2   eb          ???
58c3   00          BRK   
58c4   00          BRK   
58c5   eb          ???
58c6   eb          ???
58c7   00          BRK   
58c8   00          BRK   
58c9   eb          ???
58ca   eb          ???
58cb   00          BRK   
58cc   00          BRK   
58cd   eb          ???
58ce   eb          ???
58cf   00          BRK   
58d0   00          BRK   
58d1   ec 3b 00    CPX &003b
58d4   00          BRK   
58d5   ec 3b 00    CPX &003b
58d8   00          BRK   
58d9   ec 3b 00    CPX &003b
58dc   00          BRK   
58dd   ec 3b 00    CPX &003b
58e0   00          BRK   
58e1   f0 0f       BEQ  15       58f2
58e3   00          BRK   
58e4   00          BRK   
58e5   f0 0f       BEQ  15       58f6
58e7   00          BRK   
58e8   00          BRK   
58e9   f0 0f       BEQ  15       58fa
58eb   00          BRK   
58ec   00          BRK   
58ed   f0 0f       BEQ  15       58fe
58ef   00          BRK   
58f0   00          BRK   
58f1   c0 03       CPY #&03
58f3   00          BRK   
58f4   00          BRK   
58f5   c0 03       CPY #&03
58f7   00          BRK   
58f8   00          BRK   
58f9   c0 03       CPY #&03
58fb   00          BRK   
58fc   00          BRK   
58fd   c0 03       CPY #&03
58ff   00          BRK   
5900   78          SEI                          ; ***** START *****
5901   a2 35       LDX #&35
5903   bd 40 d9    LDA &d940,X
5906   9d 00 02    STA &0200,X
5909   ca          DEX 
590a   10 f7       BPL  -9       5903
590c   a2 0f       LDX #&0f
590e   a9 00       LDA #&00
5910   9d a1 02    STA &02a1,X
5913   ca          DEX 
5914   10 fa       BPL  -6       5910
5916   a9 93       LDA #&93
5918   8d 20 02    STA &0220
591b   a9 60       LDA #&60
591d   8d 21 02    STA &0221                    ; Set up event vector
5920   58          CLI 
5921   a2 3a       LDX #&3a
5923   a9 20       LDA #&20
5925   85 11       STA &11
5927   a9 07       LDA #&07
5929   85 13       STA &13
592b   a9 00       LDA #&00
592d   a8          TAY 
592e   85 10       STA &10
5930   a9 00       LDA #&00
5932   85 12       STA &12
5934   b1 10       LDA (&10),Y
5936   91 12       STA (&12),Y
5938   c8          INY 
5939   d0 f9       BNE  -7       5934
593b   e6 11       INC &11
593d   e6 13       INC &13
593f   ca          DEX 
5940   d0 f2       BNE -14       5934
5942   4c 00 2f    JMP &2f00                    ; Jump to &4800 in this disassembly
5945   00          BRK   
5946   00          BRK   
5947   00          BRK   
5948   49 20       EOR #&20
594a   44          ???
594b   61 76 69    ADC X,&6976
594e   64          ???
594f   20 52 68    JSR &6852
5952   79 73 20    ADC &2073,Y
5955   4a          LSR A
5956   6f          ???
5957   6e 65 73    ROR &7365
595a   20 77 6f    JSR &6f77
595d   75 6c       ROR &6c,X
595f   64          ???
5960   20 6c 69    JSR &696c
5963   6b          ???
5964   65 20       ADC &20
5966   74          ???
5967   6f          ???
5968   20 74 68    JSR &6874
596b   61 6e 6b    ADC X,&6b6e
596e   20 65 76    JSR &7665
5971   65 72       ADC &72
5973   79 62 6f    ADC &6f62,Y
5976   64          ???
5977   79 20 77    ADC &7720,Y
597a   68          PLA 
597b   6f          ???
597c   73          ???
597d   65 20       ADC &20
597f   68          PLA 
5980   65 6c       ADC &6c
5982   70 65       BVS 101       59e9
5984   64          ???
5985   20 69 6e    JSR &6e69
5988   20 74 68    JSR &6874
598b   65 20       ADC &20
598d   63          ???
598e   72          ???
598f   65 61       ADC &61
5991   74          ???
5992   69 6f       ADC #&6f
5994   6e 20 6f    ROR &6f20
5997   66 20       ROR &20
5999   4a          LSR A
599a   65 74       ADC &74
599c   2d 50 61    AND &6150
599f   63          ???
59a0   20 66 6f    JSR &6f66
59a3   72          ???
59a4   20 74 68    JSR &6874
59a7   65 20       ADC &20
59a9   31 2e 32    AND (&322e,Y)
59ac   20 42 42    JSR &4242
59af   43          ???
59b0   20 6d 6f    JSR &6f6d
59b3   64          ???
59b4   65 6c       ADC &6c
59b6   20 42 2e    JSR &2e42
59b9   00          BRK   
59ba   00          BRK   
59bb   00          BRK   
59bc   00          BRK   
59bd   00          BRK   
59be   00          BRK   
59bf   00          BRK   
59c0   00          BRK   
59c1   00          BRK   
59c2   00          BRK   
59c3   00          BRK   
59c4   00          BRK   
59c5   00          BRK   
59c6   00          BRK   
59c7   00          BRK   
59c8   00          BRK   
59c9   00          BRK   
59ca   00          BRK   
59cb   00          BRK   
59cc   00          BRK   
59cd   00          BRK   
59ce   00          BRK   
59cf   00          BRK   
59d0   00          BRK   
59d1   00          BRK   
59d2   00          BRK   
59d3   00          BRK   
59d4   00          BRK   
59d5   00          BRK   
59d6   00          BRK   
59d7   00          BRK   
59d8   00          BRK   
59d9   00          BRK   
59da   00          BRK   
59db   00          BRK   
59dc   00          BRK   
59dd   00          BRK   
59de   00          BRK   
59df   00          BRK   
59e0   00          BRK   
59e1   00          BRK   
59e2   00          BRK   
59e3   00          BRK   
59e4   00          BRK   
59e5   00          BRK   
59e6   00          BRK   
59e7   00          BRK   
59e8   00          BRK   
59e9   00          BRK   
59ea   00          BRK   
59eb   00          BRK   
59ec   00          BRK   
59ed   00          BRK   
59ee   00          BRK   
59ef   00          BRK   
59f0   00          BRK   
59f1   00          BRK   
59f2   00          BRK   
59f3   00          BRK   
59f4   00          BRK   
59f5   00          BRK   
59f6   00          BRK   
59f7   00          BRK   
59f8   00          BRK   
59f9   00          BRK   
59fa   00          BRK   
59fb   00          BRK   
59fc   00          BRK   
59fd   00          BRK   
59fe   00          BRK   
59ff   00          BRK   
